

Microchip Technology PIC18 LITE Macro Assembler V1.33 build 59893 
                                                                                               Tue Jun 16 22:17:21 2015

Microchip Technology Omniscient Code Generator (Lite mode) build 59893
     1                           	processor	18F4550
     2                           	fnconf	rparam,??,?,0
     3                           	opt	pw 120
     4                           	opt	lm
     5                           	psect	smallconst,global,reloc=2,class=SMALLCONST,delta=1
     6                           	psect	cinit,global,reloc=2,class=CODE,delta=1
     7                           	psect	bssCOMRAM,global,class=COMRAM,space=1,delta=1
     8                           	psect	bssBANK0,global,class=BANK0,space=1,delta=1
     9                           	psect	cstackBANK0,global,class=BANK0,space=1,delta=1
    10                           	psect	cstackCOMRAM,global,class=COMRAM,space=1,delta=1
    11                           	psect	text0,global,reloc=2,class=CODE,delta=1
    12                           	psect	text1,global,reloc=2,class=CODE,delta=1
    13                           	psect	text2,global,reloc=2,class=CODE,delta=1
    14                           	psect	text3,global,reloc=2,class=CODE,delta=1
    15                           	psect	text4,global,reloc=2,class=CODE,delta=1
    16                           	psect	text5,global,reloc=2,class=CODE,delta=1
    17                           	psect	text6,global,reloc=2,class=CODE,delta=1
    18                           	psect	text7,global,reloc=2,class=CODE,delta=1
    19                           	psect	text8,global,reloc=2,class=CODE,delta=1
    20                           	psect	text9,global,reloc=2,class=CODE,delta=1
    21                           	psect	text10,global,reloc=2,class=CODE,delta=1
    22                           	psect	text11,global,reloc=2,class=CODE,delta=1
    23                           	psect	text12,global,reloc=2,class=CODE,delta=1
    24                           	psect	text13,global,reloc=2,class=CODE,delta=1
    25                           	psect	intcode,global,reloc=2,class=CODE,delta=1
    26                           	psect	intcode_body,global,reloc=2,class=CODE,delta=1
    27                           	psect	text15,global,reloc=2,class=CODE,delta=1
    28                           	psect	text16,global,reloc=2,class=CODE,delta=1
    29                           	psect	text17,global,reloc=2,class=CODE,delta=1
    30                           	psect	text18,global,reloc=2,class=CODE,delta=1
    31                           	psect	text19,global,reloc=2,class=CODE,delta=1
    32                           	psect	text20,global,reloc=2,class=CODE,delta=1
    33                           	psect	text21,global,reloc=2,class=CODE,delta=1
    34                           	psect	text22,global,reloc=2,class=CODE,delta=1
    35                           	psect	text23,global,reloc=2,class=CODE,delta=1
    36                           	psect	text24,global,reloc=2,class=CODE,delta=1
    37                           	psect	text25,global,reloc=2,class=CODE,delta=1
    38                           	psect	text26,global,reloc=2,class=CODE,delta=1
    39                           	psect	text27,global,reloc=2,class=CODE,delta=1
    40                           	psect	text28,global,reloc=2,class=CODE,delta=1
    41                           	psect	text29,global,reloc=2,class=CODE,delta=1
    42                           	psect	text30,global,reloc=2,class=CODE,delta=1
    43                           	psect	text31,global,reloc=2,class=CODE,delta=1
    44                           	psect	text32,global,reloc=2,class=CODE,delta=1
    45                           	psect	text33,global,reloc=2,class=CODE,delta=1
    46                           	psect	text34,global,reloc=2,class=CODE,delta=1
    47                           	psect	text35,global,reloc=2,class=CODE,delta=1
    48                           	psect	text36,global,reloc=2,class=CODE,delta=1
    49                           	psect	text37,global,reloc=2,class=CODE,delta=1
    50                           	psect	text38,global,reloc=2,class=CODE,delta=1
    51                           	psect	text39,global,reloc=2,class=CODE,delta=1
    52                           	psect	text40,global,reloc=2,class=CODE,delta=1
    53                           	psect	text41,global,reloc=2,class=CODE,delta=1
    54                           	psect	text42,global,reloc=2,class=CODE,delta=1
    55                           	psect	text43,global,reloc=2,class=CODE,delta=1
    56                           	psect	text44,global,reloc=2,class=CODE,delta=1
    57                           	psect	intsave_regs,global,class=BIGRAM,space=1,delta=1
    58                           	psect	rparam,global,class=COMRAM,space=1,delta=1
    59                           	dabs	1,0x500,64,_ReceivedDataBuffer
    60                           	dabs	1,0x400,32,_BDT
    61                           	dabs	1,0x540,64,_ToSendDataBuffer
    62                           	dabs	1,0x428,8,_CtrlTrfData
    63                           	dabs	1,0x420,8,_SetupPkt
    64  0000                     
    65                           	psect	smallconst
    66  000800                     __psmallconst:
    67                           	opt stack 0
    68  000800  00                 	db	0
    69  000801                     _USB_SD_Ptr:
    70                           	opt stack 0
    71  000801  08C3               	dw	_sd000& (0+65535)
    72  000803  0809               	dw	_sd001& (0+65535)
    73  000805  083D               	dw	_sd002& (0+65535)
    74  000807                     __end_of_USB_SD_Ptr:
    75                           	opt stack 0
    76  000807                     _USB_CD_Ptr:
    77                           	opt stack 0
    78  000807  086B               	dw	_configDescriptor1& (0+65535)
    79  000809                     __end_of_USB_CD_Ptr:
    80                           	opt stack 0
    81  000809                     _sd001:
    82                           	opt stack 0
    83  000809  34                 	db	52
    84  00080A  03                 	db	3
    85  00080B  004D               	dw	77
    86  00080D  0069               	dw	105
    87  00080F  0063               	dw	99
    88  000811  0072               	dw	114
    89  000813  006F               	dw	111
    90  000815  0063               	dw	99
    91  000817  0068               	dw	104
    92  000819  0069               	dw	105
    93  00081B  0070               	dw	112
    94  00081D  0020               	dw	32
    95  00081F  0054               	dw	84
    96  000821  0065               	dw	101
    97  000823  0063               	dw	99
    98  000825  0068               	dw	104
    99  000827  006E               	dw	110
   100  000829  006F               	dw	111
   101  00082B  006C               	dw	108
   102  00082D  006F               	dw	111
   103  00082F  0067               	dw	103
   104  000831  0079               	dw	121
   105  000833  0020               	dw	32
   106  000835  0049               	dw	73
   107  000837  006E               	dw	110
   108  000839  0063               	dw	99
   109  00083B  002E               	dw	46
   110  00083D                     __end_of_sd001:
   111                           	opt stack 0
   112  00083D                     _sd002:
   113                           	opt stack 0
   114  00083D  2E                 	db	46
   115  00083E  03                 	db	3
   116  00083F  0053               	dw	83
   117  000841  0069               	dw	105
   118  000843  006D               	dw	109
   119  000845  0070               	dw	112
   120  000847  006C               	dw	108
   121  000849  0065               	dw	101
   122  00084B  0020               	dw	32
   123  00084D  0048               	dw	72
   124  00084F  0049               	dw	73
   125  000851  0044               	dw	68
   126  000853  0020               	dw	32
   127  000855  0044               	dw	68
   128  000857  0065               	dw	101
   129  000859  0076               	dw	118
   130  00085B  0069               	dw	105
   131  00085D  0063               	dw	99
   132  00085F  0065               	dw	101
   133  000861  0020               	dw	32
   134  000863  0044               	dw	68
   135  000865  0065               	dw	101
   136  000867  006D               	dw	109
   137  000869  006F               	dw	111
   138  00086B                     __end_of_sd002:
   139                           	opt stack 0
   140  00086B                     _configDescriptor1:
   141                           	opt stack 0
   142  00086B  09                 	db	9
   143  00086C  02                 	db	2
   144  00086D  29                 	db	41
   145  00086E  00                 	db	0
   146  00086F  01                 	db	1
   147  000870  01                 	db	1
   148  000871  00                 	db	0
   149  000872  C0                 	db	192
   150  000873  32                 	db	50
   151  000874  09                 	db	9
   152  000875  04                 	db	4
   153  000876  00                 	db	0
   154  000877  00                 	db	0
   155  000878  02                 	db	2
   156  000879  03                 	db	3
   157  00087A  00                 	db	0
   158  00087B  00                 	db	0
   159  00087C  00                 	db	0
   160  00087D  09                 	db	9
   161  00087E  21                 	db	33
   162  00087F  11                 	db	17
   163  000880  01                 	db	1
   164  000881  00                 	db	0
   165  000882  01                 	db	1
   166  000883  22                 	db	34
   167  000884  1D                 	db	29
   168  000885  00                 	db	0
   169  000886  07                 	db	7
   170  000887  05                 	db	5
   171  000888  81                 	db	129
   172  000889  03                 	db	3
   173  00088A  40                 	db	64
   174  00088B  00                 	db	0
   175  00088C  01                 	db	1
   176  00088D  07                 	db	7
   177  00088E  05                 	db	5
   178  00088F  01                 	db	1
   179  000890  03                 	db	3
   180  000891  40                 	db	64
   181  000892  00                 	db	0
   182  000893  01                 	db	1
   183  000894                     __end_of_configDescriptor1:
   184                           	opt stack 0
   185  000894                     _hid_rpt01:
   186                           	opt stack 0
   187  000894  06                 	db	6
   188  000895  00                 	db	0
   189  000896  FF                 	db	255
   190  000897  09                 	db	9
   191  000898  01                 	db	1
   192  000899  A1                 	db	161
   193  00089A  01                 	db	1
   194  00089B  19                 	db	25
   195  00089C  01                 	db	1
   196  00089D  29                 	db	41
   197  00089E  40                 	db	64
   198  00089F  15                 	db	21
   199  0008A0  00                 	db	0
   200  0008A1  26                 	db	38
   201  0008A2  FF                 	db	255
   202  0008A3  00                 	db	0
   203  0008A4  75                 	db	117
   204  0008A5  08                 	db	8
   205  0008A6  95                 	db	149
   206  0008A7  40                 	db	64
   207  0008A8  81                 	db	129
   208  0008A9  00                 	db	0
   209  0008AA  19                 	db	25
   210  0008AB  01                 	db	1
   211  0008AC  29                 	db	41
   212  0008AD  40                 	db	64
   213  0008AE  91                 	db	145
   214  0008AF  00                 	db	0
   215  0008B0  C0                 	db	192
   216  0008B1                     __end_of_hid_rpt01:
   217                           	opt stack 0
   218  0008B1                     _device_dsc:
   219                           	opt stack 0
   220  0008B1  12                 	db	18
   221  0008B2  01                 	db	1
   222  0008B3  0200               	dw	512
   223  0008B5  00                 	db	0
   224  0008B6  00                 	db	0
   225  0008B7  00                 	db	0
   226  0008B8  08                 	db	8
   227  0008B9  04D8               	dw	1240
   228  0008BB  003F               	dw	63
   229  0008BD  0100               	dw	256
   230  0008BF  01                 	db	1
   231  0008C0  02                 	db	2
   232  0008C1  00                 	db	0
   233  0008C2  01                 	db	1
   234  0008C3                     __end_of_device_dsc:
   235                           	opt stack 0
   236  0008C3                     _sd000:
   237                           	opt stack 0
   238  0008C3  04                 	db	4
   239  0008C4  03                 	db	3
   240  0008C5  0409               	dw	1033
   241  0008C7                     __end_of_sd000:
   242                           	opt stack 0
   243  0000                     _ADCON0	set	4034
   244  0000                     _ADCON0bits	set	4034
   245  0000                     _ADCON1bits	set	4033
   246  0000                     _ADCON2	set	4032
   247  0000                     _ADCON2bits	set	4032
   248  0000                     _ADRESH	set	4036
   249  0000                     _ADRESL	set	4035
   250  0000                     _INTCONbits	set	4082
   251  0000                     _IPR2bits	set	4002
   252  0000                     _LATDbits	set	3980
   253  0000                     _PIE2bits	set	4000
   254  0000                     _PIR2bits	set	4001
   255  0000                     _PORTBbits	set	3969
   256  0000                     _RCONbits	set	4048
   257  0000                     _TRISAbits	set	3986
   258  0000                     _TRISBbits	set	3987
   259  0000                     _TRISDbits	set	3989
   260  0000                     _UADDR	set	3950
   261  0000                     _UCFG	set	3951
   262  0000                     _UCON	set	3949
   263  0000                     _UCONbits	set	3949
   264  0000                     _UEIE	set	3947
   265  0000                     _UEIR	set	3946
   266  0000                     _UEP0bits	set	3952
   267  0000                     _UIE	set	3945
   268  0000                     _UIEbits	set	3945
   269  0000                     _UIR	set	3944
   270  0000                     _UIRbits	set	3944
   271  0000                     _USTAT	set	3948
   272  0000                     _UEP0	set	3952
   273  0000                     _UEP1	set	3953
   274                           
   275                           ; #config settings
   276  0008C7  00                 	db	0	; dummy byte at the end
   277  0000                     
   278                           	psect	cinit
   279  002430                     __pcinit:
   280                           	opt stack 0
   281  002430                     start_initialization:
   282                           	opt stack 0
   283  002430                     __initialization:
   284                           	opt stack 0
   285                           
   286                           ; Clear objects allocated to BANK0 (31 bytes)
   287  002430  EE00  F060         	lfsr	0,__pbssBANK0
   288  002434  0E1F               	movlw	31
   289  002436                     clear_0:
   290  002436  6AEE               	clrf	postinc0,c
   291  002438  06E8               	decf	wreg,f,c
   292  00243A  E1FD               	bnz	clear_0
   293                           
   294                           ; Clear objects allocated to COMRAM (30 bytes)
   295  00243C  EE00  F033         	lfsr	0,__pbssCOMRAM
   296  002440  0E1E               	movlw	30
   297  002442                     clear_1:
   298  002442  6AEE               	clrf	postinc0,c
   299  002444  06E8               	decf	wreg,f,c
   300  002446  E1FD               	bnz	clear_1
   301  002448                     end_of_initialization:
   302                           	opt stack 0
   303  002448                     __end_of__initialization:
   304                           	opt stack 0
   305  002448  0E00               	movlw	low (__Lmediumconst shr (0+16))
   306  00244A  6EF8               	movwf	tblptru,c
   307  00244C  0100               	movlb	0
   308  00244E  EF29  F012         	goto	_main	;jump to C main() function
   309                           tblptru	equ	0xFF8
   310                           postinc0	equ	0xFEE
   311                           wreg	equ	0xFE8
   312                           
   313                           	psect	bssCOMRAM
   314  000033                     __pbssCOMRAM:
   315                           	opt stack 0
   316  000033                     _USB1msTickCount:
   317                           	opt stack 0
   318  000033                     	ds	4
   319  000037                     APP_LEDUpdateUSBStatus@ledCount:
   320                           	opt stack 0
   321  000037                     	ds	2
   322  000039                     _pBDTEntryEP0OutCurrent:
   323                           	opt stack 0
   324  000039                     	ds	2
   325  00003B                     _pBDTEntryEP0OutNext:
   326                           	opt stack 0
   327  00003B                     	ds	2
   328  00003D                     _pDst:
   329                           	opt stack 0
   330  00003D                     	ds	2
   331  00003F                     _BothEP0OutUOWNsSet:
   332                           	opt stack 0
   333  00003F                     	ds	1
   334  000040                     _RemoteWakeup:
   335                           	opt stack 0
   336  000040                     	ds	1
   337  000041                     _USBBusIsSuspended:
   338                           	opt stack 0
   339  000041                     	ds	1
   340  000042                     _USBDeferINDataStagePackets:
   341                           	opt stack 0
   342  000042                     	ds	1
   343  000043                     _USBDeferOUTDataStagePackets:
   344                           	opt stack 0
   345  000043                     	ds	1
   346  000044                     _USBDeferStatusStagePacket:
   347                           	opt stack 0
   348  000044                     	ds	1
   349  000045                     _USBStatusStageEnabledFlag1:
   350                           	opt stack 0
   351  000045                     	ds	1
   352  000046                     _USBStatusStageEnabledFlag2:
   353                           	opt stack 0
   354  000046                     	ds	1
   355  000047                     _USBStatusStageTimeoutCounter:
   356                           	opt stack 0
   357  000047                     	ds	1
   358  000048                     _USBTicksSinceSuspendEnd:
   359                           	opt stack 0
   360  000048                     	ds	1
   361  000049                     _controlTransferState:
   362                           	opt stack 0
   363  000049                     	ds	1
   364  00004A                     _endpoint_number:
   365                           	opt stack 0
   366  00004A                     	ds	1
   367  00004B                     _shortPacketStatus:
   368                           	opt stack 0
   369  00004B                     	ds	1
   370  00004C                     _USBActiveConfiguration:
   371                           	opt stack 0
   372  00004C                     	ds	1
   373  00004D                     _USBAlternateInterface:
   374                           	opt stack 0
   375  00004D                     	ds	1
   376  00004E                     _USTATcopy:
   377                           	opt stack 0
   378  00004E                     	ds	1
   379  00004F                     _active_protocol:
   380                           	opt stack 0
   381  00004F                     	ds	1
   382  000050                     _idle_rate:
   383                           	opt stack 0
   384  000050                     	ds	1
   385                           tblptru	equ	0xFF8
   386                           postinc0	equ	0xFEE
   387                           wreg	equ	0xFE8
   388                           
   389                           	psect	bssBANK0
   390  000060                     __pbssBANK0:
   391                           	opt stack 0
   392  000060                     _outPipes:
   393                           	opt stack 0
   394  000060                     	ds	8
   395  000068                     _pBDTEntryIn:
   396                           	opt stack 0
   397  000068                     	ds	4
   398  00006C                     _pBDTEntryOut:
   399                           	opt stack 0
   400  00006C                     	ds	4
   401  000070                     _USBInHandle:
   402                           	opt stack 0
   403  000070                     	ds	2
   404  000072                     _USBOutHandle:
   405                           	opt stack 0
   406  000072                     	ds	2
   407  000074                     _ep_data_in:
   408                           	opt stack 0
   409  000074                     	ds	2
   410  000076                     _ep_data_out:
   411                           	opt stack 0
   412  000076                     	ds	2
   413  000078                     _USBDeviceState:
   414                           	opt stack 0
   415  000078                     	ds	1
   416  000079                     _inPipes:
   417                           	opt stack 0
   418  000079                     	ds	6
   419                           tblptru	equ	0xFF8
   420                           postinc0	equ	0xFEE
   421                           wreg	equ	0xFE8
   422                           
   423                           	psect	cstackBANK0
   424  00007F                     __pcstackBANK0:
   425                           	opt stack 0
   426  00007F                     ?_USBTransferOnePacket:
   427                           	opt stack 0
   428  00007F                     ?_ADC_Read10bit:
   429                           	opt stack 0
   430  00007F                     ADC_Enable@channel:
   431                           	opt stack 0
   432  00007F                     ADC_SetConfiguration@configuration:
   433                           	opt stack 0
   434  00007F                     BUTTON_IsPressed@button:
   435                           	opt stack 0
   436  00007F                     BUTTON_Enable@button:
   437                           	opt stack 0
   438  00007F                     LED_Toggle@led:
   439                           	opt stack 0
   440  00007F                     LED_Enable@led:
   441                           	opt stack 0
   442  00007F                     USBTransferOnePacket@dir:
   443                           	opt stack 0
   444  00007F                     memset@p1:
   445                           	opt stack 0
   446                           
   447                           ; 2 bytes @ 0x0
   448  00007F                     	ds	1
   449  000080                     SYSTEM_Initialize@state:
   450                           	opt stack 0
   451  000080                     USBTransferOnePacket@data:
   452                           	opt stack 0
   453                           
   454                           ; 2 bytes @ 0x1
   455  000080                     	ds	1
   456  000081                     ??_ADC_Read10bit:
   457  000081                     memset@c:
   458                           	opt stack 0
   459                           
   460                           ; 2 bytes @ 0x2
   461  000081                     	ds	1
   462  000082                     USBTransferOnePacket@len:
   463                           	opt stack 0
   464  000082                     ADC_Read10bit@result:
   465                           	opt stack 0
   466                           
   467                           ; 2 bytes @ 0x3
   468  000082                     	ds	1
   469  000083                     USBTransferOnePacket@ep:
   470                           	opt stack 0
   471  000083                     memset@n:
   472                           	opt stack 0
   473                           
   474                           ; 2 bytes @ 0x4
   475  000083                     	ds	1
   476  000084                     ADC_Read10bit@channel:
   477                           	opt stack 0
   478  000084                     USBTransferOnePacket@handle:
   479                           	opt stack 0
   480                           
   481                           ; 2 bytes @ 0x5
   482  000084                     	ds	1
   483  000085                     memset@p:
   484                           	opt stack 0
   485                           
   486                           ; 2 bytes @ 0x6
   487  000085                     	ds	1
   488  000086                     ??_APP_DeviceCustomHIDTasks:
   489                           
   490                           ; 0 bytes @ 0x7
   491  000086                     	ds	1
   492  000087                     USBDeviceInit@i:
   493                           	opt stack 0
   494                           
   495                           ; 1 bytes @ 0x8
   496  000087                     	ds	2
   497  000089                     _APP_DeviceCustomHIDTasks$191:
   498                           	opt stack 0
   499                           
   500                           ; 2 bytes @ 0xA
   501  000089                     	ds	2
   502  00008B                     _APP_DeviceCustomHIDTasks$225:
   503                           	opt stack 0
   504                           
   505                           ; 2 bytes @ 0xC
   506  00008B                     	ds	2
   507  00008D                     _APP_DeviceCustomHIDTasks$227:
   508                           	opt stack 0
   509                           
   510                           ; 2 bytes @ 0xE
   511  00008D                     	ds	2
   512  00008F                     APP_DeviceCustomHIDTasks@pot:
   513                           	opt stack 0
   514                           
   515                           ; 2 bytes @ 0x10
   516  00008F                     	ds	2
   517  000091                     tblptru	equ	0xFF8
   518                           postinc0	equ	0xFEE
   519                           wreg	equ	0xFE8
   520                           
   521                           ; 0 bytes @ 0x12
   522                           
   523                           	psect	cstackCOMRAM
   524  000001                     __pcstackCOMRAM:
   525                           	opt stack 0
   526  000001                     ??_USBCheckHIDRequest:
   527  000001                     ??_USBStdGetDscHandler:
   528  000001                     ??_USBStdGetStatusHandler:
   529  000001                     ?i2_USBTransferOnePacket:
   530                           	opt stack 0
   531  000001                     LED_On@led:
   532                           	opt stack 0
   533  000001                     LED_Off@led:
   534                           	opt stack 0
   535  000001                     USBConfigureEndpoint@direction:
   536                           	opt stack 0
   537  000001                     USBCtrlTrfTxService@byteToSend:
   538                           	opt stack 0
   539  000001                     USBCtrlTrfRxService@i:
   540                           	opt stack 0
   541  000001                     i2USBTransferOnePacket@dir:
   542                           	opt stack 0
   543  000001                     i2memset@p1:
   544                           	opt stack 0
   545                           
   546                           ; 2 bytes @ 0x0
   547  000001                     	ds	1
   548  000002                     ??_USBConfigureEndpoint:
   549  000002                     USBCtrlTrfRxService@byteToRead:
   550                           	opt stack 0
   551  000002                     USBCtrlTrfInHandler@lastDTS:
   552                           	opt stack 0
   553  000002                     USBStdGetStatusHandler@p:
   554                           	opt stack 0
   555  000002                     i2USBTransferOnePacket@data:
   556                           	opt stack 0
   557                           
   558                           ; 2 bytes @ 0x1
   559  000002                     	ds	1
   560  000003                     i2memset@c:
   561                           	opt stack 0
   562                           
   563                           ; 2 bytes @ 0x2
   564  000003                     	ds	1
   565  000004                     i2USBTransferOnePacket@len:
   566                           	opt stack 0
   567                           
   568                           ; 1 bytes @ 0x3
   569  000004                     	ds	1
   570  000005                     i2USBTransferOnePacket@ep:
   571                           	opt stack 0
   572  000005                     i2memset@n:
   573                           	opt stack 0
   574                           
   575                           ; 2 bytes @ 0x4
   576  000005                     	ds	1
   577  000006                     USBConfigureEndpoint@EPNum:
   578                           	opt stack 0
   579  000006                     i2USBTransferOnePacket@handle:
   580                           	opt stack 0
   581                           
   582                           ; 2 bytes @ 0x5
   583  000006                     	ds	1
   584  000007                     USBConfigureEndpoint@handle:
   585                           	opt stack 0
   586  000007                     i2memset@p:
   587                           	opt stack 0
   588                           
   589                           ; 2 bytes @ 0x6
   590  000007                     	ds	2
   591  000009                     USBEnableEndpoint@options:
   592                           	opt stack 0
   593  000009                     i2USBDeviceInit@i:
   594                           	opt stack 0
   595                           
   596                           ; 1 bytes @ 0x8
   597  000009                     	ds	1
   598  00000A                     ??_USBEnableEndpoint:
   599                           
   600                           ; 0 bytes @ 0x9
   601  00000A                     	ds	2
   602  00000C                     USBEnableEndpoint@p:
   603                           	opt stack 0
   604                           
   605                           ; 2 bytes @ 0xB
   606  00000C                     	ds	2
   607  00000E                     USBEnableEndpoint@ep:
   608                           	opt stack 0
   609                           
   610                           ; 1 bytes @ 0xD
   611  00000E                     	ds	1
   612  00000F                     USER_USB_CALLBACK_EVENT_HANDLER@event:
   613                           	opt stack 0
   614                           
   615                           ; 2 bytes @ 0xE
   616  00000F                     	ds	2
   617  000011                     USER_USB_CALLBACK_EVENT_HANDLER@pdata:
   618                           	opt stack 0
   619                           
   620                           ; 2 bytes @ 0x10
   621  000011                     	ds	2
   622  000013                     USER_USB_CALLBACK_EVENT_HANDLER@size:
   623                           	opt stack 0
   624                           
   625                           ; 2 bytes @ 0x12
   626  000013                     	ds	2
   627  000015                     ??_USER_USB_CALLBACK_EVENT_HANDLER:
   628                           
   629                           ; 0 bytes @ 0x14
   630  000015                     	ds	2
   631  000017                     ??_USBStdFeatureReqHandler:
   632  000017                     USBStdSetCfgHandler@i:
   633                           	opt stack 0
   634                           
   635                           ; 1 bytes @ 0x16
   636  000017                     	ds	3
   637  00001A                     USBStdFeatureReqHandler@pUEP:
   638                           	opt stack 0
   639                           
   640                           ; 2 bytes @ 0x19
   641  00001A                     	ds	2
   642  00001C                     USBStdFeatureReqHandler@current_ep_data:
   643                           	opt stack 0
   644                           
   645                           ; 1 bytes @ 0x1B
   646  00001C                     	ds	1
   647  00001D                     USBStdFeatureReqHandler@p:
   648                           	opt stack 0
   649                           
   650                           ; 2 bytes @ 0x1C
   651  00001D                     	ds	2
   652  00001F                     ??_USBCheckStdRequest:
   653                           
   654                           ; 0 bytes @ 0x1E
   655  00001F                     	ds	2
   656  000021                     ??_USBCtrlEPService:
   657  000021                     
   658                           ; 0 bytes @ 0x20
   659  000021                     	ds	2
   660  000023                     USBCtrlEPService@setup_cnt:
   661                           	opt stack 0
   662                           
   663                           ; 1 bytes @ 0x22
   664  000023                     	ds	1
   665  000024                     USBDeviceTasks@i:
   666                           	opt stack 0
   667                           
   668                           ; 1 bytes @ 0x23
   669  000024                     	ds	1
   670  000025                     ??_SYS_InterruptHigh:
   671                           
   672                           ; 0 bytes @ 0x24
   673  000025                     	ds	14
   674                           tblptru	equ	0xFF8
   675                           postinc0	equ	0xFEE
   676                           wreg	equ	0xFE8
   677                           
   678 ;;
   679 ;;Main: autosize = 0, tempsize = 0, incstack = 0, save=0
   680 ;;
   681 ;; *************** function _main *****************
   682 ;; Defined at:
   683 ;;		line 35 in file "../src/main.c"
   684 ;; Parameters:    Size  Location     Type
   685 ;;		None
   686 ;; Auto vars:     Size  Location     Type
   687 ;;		None
   688 ;; Return value:  Size  Location     Type
   689 ;;		None               void
   690 ;; Registers used:
   691 ;;		wreg, fsr2l, fsr2h, status,2, status,0, prodl, prodh, cstack
   692 ;; Tracked objects:
   693 ;;		On entry : 0/0
   694 ;;		On exit  : 0/0
   695 ;;		Unchanged: 0/0
   696 ;; Data sizes:     COMRAM   BANK0   BANK1   BANK2   BANK3   BANK4   BANK5   BANK6   BANK7
   697 ;;      Params:         0       0       0       0       0       0       0       0       0
   698 ;;      Locals:         0       0       0       0       0       0       0       0       0
   699 ;;      Temps:          0       0       0       0       0       0       0       0       0
   700 ;;      Totals:         0       0       0       0       0       0       0       0       0
   701 ;;Total ram usage:        0 bytes
   702 ;; Hardware stack levels required when called:   12
   703 ;; This function calls:
   704 ;;		_APP_DeviceCustomHIDTasks
   705 ;;		_SYSTEM_Initialize
   706 ;;		_USBDeviceAttach
   707 ;;		_USBDeviceInit
   708 ;; This function is called by:
   709 ;;		Startup code after reset
   710 ;; This function uses a non-reentrant model
   711 ;;
   712                           
   713                           	psect	text0
   714  002452                     __ptext0:
   715                           	opt stack 0
   716  002452                     _main:
   717                           	opt stack 19
   718                           
   719                           ;main.c: 37: SYSTEM_Initialize(SYSTEM_STATE_USB_START);
   720                           
   721                           ; BSR set to: 0
   722                           ;incstack = 0
   723  002452  0E00               	movlw	0
   724  002454  EC3E  F011         	call	_SYSTEM_Initialize
   725                           
   726                           ;main.c: 39: USBDeviceInit();
   727  002458  ECA3  F006         	call	_USBDeviceInit	;wreg free
   728                           
   729                           ;main.c: 40: USBDeviceAttach();
   730  00245C  EC90  F011         	call	_USBDeviceAttach	;wreg free
   731  002460                     l3880:
   732                           
   733                           ;main.c: 43: {
   734                           ;main.c: 44: ;
   735                           ;main.c: 65: if( USBDeviceState < CONFIGURED_STATE )
   736  002460  0E20               	movlw	32
   737  002462  0100               	movlb	0	; () banked
   738  002464  5D78               	subwf	_USBDeviceState& (0+255),w,b	;volatile
   739  002466  B0D8               	btfsc	status,0,c
   740                           
   741                           ; BSR set to: 0
   742                           ;main.c: 69: }
   743                           ;main.c: 75: if( UCONbits.SUSPND == 1 )
   744                           
   745                           ; BSR set to: 0
   746                           ;main.c: 66: {
   747                           ;main.c: 68: continue;
   748  002468  B26D               	btfsc	3949,1,c	;volatile
   749  00246A  D7FA               	goto	l3880
   750                           
   751                           ; BSR set to: 0
   752                           ;main.c: 79: }
   753                           ;main.c: 82: APP_DeviceCustomHIDTasks();
   754                           
   755                           ; BSR set to: 0
   756                           
   757                           ; BSR set to: 0
   758                           ;main.c: 76: {
   759                           ;main.c: 78: continue;
   760  00246C  ECC1  F005         	call	_APP_DeviceCustomHIDTasks	;wreg free
   761  002470  D7F7               	goto	l3880
   762  002472                     __end_of_main:
   763                           	opt stack 0
   764                           tblptru	equ	0xFF8
   765                           postinc0	equ	0xFEE
   766                           wreg	equ	0xFE8
   767                           status	equ	0xFD8
   768                           
   769 ;; *************** function _USBDeviceInit *****************
   770 ;; Defined at:
   771 ;;		line 300 in file "../src/usb_device.c"
   772 ;; Parameters:    Size  Location     Type
   773 ;;		None
   774 ;; Auto vars:     Size  Location     Type
   775 ;;  i               1    8[BANK0 ] unsigned char 
   776 ;; Return value:  Size  Location     Type
   777 ;;		None               void
   778 ;; Registers used:
   779 ;;		wreg, fsr2l, fsr2h, status,2, status,0, prodl, prodh, cstack
   780 ;; Tracked objects:
   781 ;;		On entry : 0/0
   782 ;;		On exit  : 0/0
   783 ;;		Unchanged: 0/0
   784 ;; Data sizes:     COMRAM   BANK0   BANK1   BANK2   BANK3   BANK4   BANK5   BANK6   BANK7
   785 ;;      Params:         0       0       0       0       0       0       0       0       0
   786 ;;      Locals:         0       1       0       0       0       0       0       0       0
   787 ;;      Temps:          0       0       0       0       0       0       0       0       0
   788 ;;      Totals:         0       1       0       0       0       0       0       0       0
   789 ;;Total ram usage:        1 bytes
   790 ;; Hardware stack levels used:    1
   791 ;; Hardware stack levels required when called:   11
   792 ;; This function calls:
   793 ;;		_memset
   794 ;; This function is called by:
   795 ;;		_main
   796 ;; This function uses a non-reentrant model
   797 ;;
   798                           
   799                           	psect	text1
   800  000D46                     __ptext1:
   801                           	opt stack 0
   802  000D46                     _USBDeviceInit:
   803                           	opt stack 19
   804                           
   805                           ;usb_device.c: 302: uint8_t i;
   806                           ;usb_device.c: 304: {PIE2bits.USBIE = 0;};
   807                           
   808                           ;incstack = 0
   809  000D46  9AA0               	bcf	4000,5,c	;volatile
   810                           
   811                           ;usb_device.c: 307: {UEIR = 0;};
   812  000D48  0E00               	movlw	0
   813  000D4A  6E6A               	movwf	3946,c	;volatile
   814                           
   815                           ;usb_device.c: 310: {UIR = 0;};
   816  000D4C  0E00               	movlw	0
   817  000D4E  6E68               	movwf	3944,c	;volatile
   818                           
   819                           ;usb_device.c: 313: UEP0 = 0;
   820  000D50  0E00               	movlw	0
   821  000D52  6E70               	movwf	3952,c	;volatile
   822                           
   823                           ;usb_device.c: 315: memset((void*)&UEP1,0x00,(1));;
   824  000D54  0E0F               	movlw	15	;volatile
   825  000D56  0100               	movlb	0	; () banked
   826  000D58  6F80               	movwf	(memset@p1+1)& (0+255),b
   827  000D5A  0E71               	movlw	113	;volatile
   828  000D5C  0100               	movlb	0	; () banked
   829  000D5E  6F7F               	movwf	memset@p1& (0+255),b
   830  000D60  0E00               	movlw	0
   831  000D62  0100               	movlb	0	; () banked
   832  000D64  6F82               	movwf	(memset@c+1)& (0+255),b
   833  000D66  0E00               	movlw	0
   834  000D68  0100               	movlb	0	; () banked
   835  000D6A  6F81               	movwf	memset@c& (0+255),b
   836  000D6C  0E00               	movlw	0
   837  000D6E  0100               	movlb	0	; () banked
   838  000D70  6F84               	movwf	(memset@n+1)& (0+255),b
   839  000D72  0E01               	movlw	1
   840  000D74  0100               	movlb	0	; () banked
   841  000D76  6F83               	movwf	memset@n& (0+255),b
   842  000D78  EC22  F011         	call	_memset	;wreg free
   843                           
   844                           ;usb_device.c: 317: { UCFG = 0x10 | 0x00 | 0x04 | 0x02; UEIE = 0x9F; UIE = 0x39 | 0x40 |
      +                           0x02; };
   845  000D7C  0E16               	movlw	22
   846  000D7E  6E6F               	movwf	3951,c	;volatile
   847  000D80  0E9F               	movlw	159
   848  000D82  6E6B               	movwf	3947,c	;volatile
   849  000D84  0E7B               	movlw	123
   850  000D86  6E69               	movwf	3945,c	;volatile
   851                           
   852                           ;usb_device.c: 320: ;
   853                           ;usb_device.c: 323: ;
   854                           ;usb_device.c: 326: for(i = 0; i < (sizeof(BDT)/sizeof(BDT_ENTRY)); i++)
   855  000D88  0E00               	movlw	0
   856  000D8A  0100               	movlb	0	; () banked
   857  000D8C  6F87               	movwf	USBDeviceInit@i& (0+255),b
   858  000D8E  D011               	goto	L1
   859  000D90                     l3804:
   860                           
   861                           ; BSR set to: 0
   862                           ;usb_device.c: 327: {
   863                           ;usb_device.c: 328: BDT[i].Val = 0x00;
   864  000D90  0100               	movlb	0	; () banked
   865  000D92  5187               	movf	USBDeviceInit@i& (0+255),w,b
   866  000D94  0D04               	mullw	4
   867  000D96  0104               	movlb	4	; () banked
   868  000D98  0E00               	movlw	0	;volatile
   869  000D9A  24F3               	addwf	prodl,w,c
   870  000D9C  6ED9               	movwf	fsr2l,c
   871  000D9E  0104               	movlb	4	; () banked
   872  000DA0  0E04               	movlw	4	;volatile
   873  000DA2  20F4               	addwfc	prodh,w,c
   874  000DA4  6EDA               	movwf	fsr2h,c
   875  000DA6  6ADE               	clrf	postinc2,c
   876  000DA8  6ADE               	clrf	postinc2,c
   877  000DAA  6ADE               	clrf	postinc2,c
   878  000DAC  6ADD               	clrf	postdec2,c
   879                           
   880                           ; BSR set to: 4
   881  000DAE  0100               	movlb	0	; () banked
   882  000DB0  2B87               	incf	USBDeviceInit@i& (0+255),f,b
   883  000DB2                     L1:
   884                           
   885                           ; BSR set to: 0
   886  000DB2  0E07               	movlw	7
   887  000DB4  0100               	movlb	0	; () banked
   888  000DB6  6587               	cpfsgt	USBDeviceInit@i& (0+255),b
   889  000DB8  D7EB               	goto	l3804
   890                           
   891                           ; BSR set to: 0
   892                           ;usb_device.c: 329: }
   893                           ;usb_device.c: 332: UCONbits.PPBRST = 1;
   894  000DBA  8C6D               	bsf	3949,6,c	;volatile
   895                           
   896                           ; BSR set to: 0
   897                           ;usb_device.c: 335: UADDR = 0x00;
   898  000DBC  0E00               	movlw	0
   899  000DBE  6E6E               	movwf	3950,c	;volatile
   900                           
   901                           ; BSR set to: 0
   902                           ;usb_device.c: 338: UCONbits.PKTDIS = 0;
   903  000DC0  986D               	bcf	3949,4,c	;volatile
   904                           
   905                           ; BSR set to: 0
   906                           ;usb_device.c: 341: UCONbits.PPBRST = 0;
   907  000DC2  9C6D               	bcf	3949,6,c	;volatile
   908  000DC4                     l3816:
   909                           
   910                           ; BSR set to: 0
   911                           ;usb_device.c: 345: {
   912                           ;usb_device.c: 346: (UIR &= 0xF7);
   913  000DC4  9668               	bcf	3944,3,c	;volatile
   914                           
   915                           ; BSR set to: 0
   916                           ;usb_device.c: 348: inPipes[0].info.Val = 0;
   917  000DC6  0E00               	movlw	0
   918  000DC8  0100               	movlb	0	; () banked
   919  000DCA  6F7C               	movwf	(_inPipes+3)& (0+255),b	;volatile
   920                           
   921                           ; BSR set to: 0
   922                           ;usb_device.c: 349: outPipes[0].info.Val = 0;
   923  000DCC  0E00               	movlw	0
   924  000DCE  0100               	movlb	0	; () banked
   925  000DD0  6F63               	movwf	(_outPipes+3)& (0+255),b	;volatile
   926                           
   927                           ; BSR set to: 0
   928                           ;usb_device.c: 350: outPipes[0].wCount.Val = 0;
   929  000DD2  0E00               	movlw	0
   930  000DD4  0100               	movlb	0	; () banked
   931  000DD6  6F65               	movwf	(_outPipes+5)& (0+255),b	;volatile
   932  000DD8  0E00               	movlw	0
   933  000DDA  0100               	movlb	0	; () banked
   934  000DDC  6F64               	movwf	(_outPipes+4)& (0+255),b	;volatile
   935                           
   936                           ; BSR set to: 0
   937                           ;usb_device.c: 351: }while(UIRbits.TRNIF == 1);
   938  000DDE  B668               	btfsc	3944,3,c	;volatile
   939  000DE0  D7F1               	goto	l3816
   940                           
   941                           ; BSR set to: 0
   942                           ;usb_device.c: 355: USBStatusStageEnabledFlag1 = 1;
   943                           
   944                           ; BSR set to: 0
   945  000DE2  0E01               	movlw	1
   946  000DE4  6E45               	movwf	_USBStatusStageEnabledFlag1,c	;volatile
   947                           
   948                           ;usb_device.c: 356: USBStatusStageEnabledFlag2 = 1;
   949  000DE6  0E01               	movlw	1
   950  000DE8  6E46               	movwf	_USBStatusStageEnabledFlag2,c	;volatile
   951                           
   952                           ;usb_device.c: 358: USBDeferINDataStagePackets = 0;
   953  000DEA  0E00               	movlw	0
   954  000DEC  6E42               	movwf	_USBDeferINDataStagePackets,c	;volatile
   955                           
   956                           ;usb_device.c: 359: USBDeferOUTDataStagePackets = 0;
   957  000DEE  0E00               	movlw	0
   958  000DF0  6E43               	movwf	_USBDeferOUTDataStagePackets,c	;volatile
   959                           
   960                           ;usb_device.c: 360: USBBusIsSuspended = 0;
   961  000DF2  0E00               	movlw	0
   962  000DF4  6E41               	movwf	_USBBusIsSuspended,c	;volatile
   963                           
   964                           ;usb_device.c: 364: for(i = 0; i < (uint8_t)(1+1u); i++)
   965  000DF6  0E00               	movlw	0
   966  000DF8  0100               	movlb	0	; () banked
   967  000DFA  6F87               	movwf	USBDeviceInit@i& (0+255),b
   968  000DFC  D03A               	goto	L2
   969  000DFE                     l3832:
   970                           
   971                           ; BSR set to: 0
   972                           ;usb_device.c: 365: {
   973                           ;usb_device.c: 366: pBDTEntryIn[i] = 0u;
   974  000DFE  0100               	movlb	0	; () banked
   975  000E00  5187               	movf	USBDeviceInit@i& (0+255),w,b
   976  000E02  0D02               	mullw	2
   977  000E04  0100               	movlb	0	; () banked
   978  000E06  0E68               	movlw	low _pBDTEntryIn
   979  000E08  24F3               	addwf	prodl,w,c
   980  000E0A  6ED9               	movwf	fsr2l,c
   981  000E0C  0100               	movlb	0	; () banked
   982  000E0E  0E00               	movlw	high _pBDTEntryIn
   983  000E10  20F4               	addwfc	prodh,w,c
   984  000E12  6EDA               	movwf	fsr2h,c
   985  000E14  0E00               	movlw	0
   986  000E16  6EDE               	movwf	postinc2,c
   987  000E18  0E00               	movlw	0
   988  000E1A  6EDD               	movwf	postdec2,c
   989                           
   990                           ;usb_device.c: 367: pBDTEntryOut[i] = 0u;
   991  000E1C  0100               	movlb	0	; () banked
   992  000E1E  5187               	movf	USBDeviceInit@i& (0+255),w,b
   993  000E20  0D02               	mullw	2
   994  000E22  0100               	movlb	0	; () banked
   995  000E24  0E6C               	movlw	low _pBDTEntryOut
   996  000E26  24F3               	addwf	prodl,w,c
   997  000E28  6ED9               	movwf	fsr2l,c
   998  000E2A  0100               	movlb	0	; () banked
   999  000E2C  0E00               	movlw	high _pBDTEntryOut
  1000  000E2E  20F4               	addwfc	prodh,w,c
  1001  000E30  6EDA               	movwf	fsr2h,c
  1002  000E32  0E00               	movlw	0
  1003  000E34  6EDE               	movwf	postinc2,c
  1004  000E36  0E00               	movlw	0
  1005  000E38  6EDD               	movwf	postdec2,c
  1006                           
  1007                           ;usb_device.c: 368: ep_data_in[i].Val = 0u;
  1008  000E3A  0100               	movlb	0	; () banked
  1009  000E3C  5187               	movf	USBDeviceInit@i& (0+255),w,b
  1010  000E3E  0D01               	mullw	1
  1011  000E40  0100               	movlb	0	; () banked
  1012  000E42  0E74               	movlw	low _ep_data_in	;volatile
  1013  000E44  24F3               	addwf	prodl,w,c
  1014  000E46  6ED9               	movwf	fsr2l,c
  1015  000E48  0100               	movlb	0	; () banked
  1016  000E4A  0E00               	movlw	high _ep_data_in	;volatile
  1017  000E4C  20F4               	addwfc	prodh,w,c
  1018  000E4E  6EDA               	movwf	fsr2h,c
  1019  000E50  0E00               	movlw	0
  1020  000E52  6EDF               	movwf	indf2,c
  1021                           
  1022                           ;usb_device.c: 369: ep_data_out[i].Val = 0u;
  1023  000E54  0100               	movlb	0	; () banked
  1024  000E56  5187               	movf	USBDeviceInit@i& (0+255),w,b
  1025  000E58  0D01               	mullw	1
  1026  000E5A  0100               	movlb	0	; () banked
  1027  000E5C  0E76               	movlw	low _ep_data_out	;volatile
  1028  000E5E  24F3               	addwf	prodl,w,c
  1029  000E60  6ED9               	movwf	fsr2l,c
  1030  000E62  0100               	movlb	0	; () banked
  1031  000E64  0E00               	movlw	high _ep_data_out	;volatile
  1032  000E66  20F4               	addwfc	prodh,w,c
  1033  000E68  6EDA               	movwf	fsr2h,c
  1034  000E6A  0E00               	movlw	0
  1035  000E6C  6EDF               	movwf	indf2,c
  1036                           
  1037                           ; BSR set to: 0
  1038  000E6E  0100               	movlb	0	; () banked
  1039  000E70  2B87               	incf	USBDeviceInit@i& (0+255),f,b
  1040  000E72                     L2:
  1041                           
  1042                           ; BSR set to: 0
  1043  000E72  0E01               	movlw	1
  1044  000E74  0100               	movlb	0	; () banked
  1045  000E76  6587               	cpfsgt	USBDeviceInit@i& (0+255),b
  1046  000E78  D7C2               	goto	l3832
  1047                           
  1048                           ; BSR set to: 0
  1049                           ;usb_device.c: 370: }
  1050                           ;usb_device.c: 373: pBDTEntryIn[0] = (volatile BDT_ENTRY*)&BDT[2];
  1051                           
  1052                           ; BSR set to: 0
  1053  000E7A  0104               	movlb	4	; () banked
  1054  000E7C  0E04               	movlw	4	;volatile
  1055  000E7E  0100               	movlb	0	; () banked
  1056  000E80  6F69               	movwf	(_pBDTEntryIn+1)& (0+255),b
  1057  000E82  0104               	movlb	4	; () banked
  1058  000E84  0E08               	movlw	8	;volatile
  1059  000E86  0100               	movlb	0	; () banked
  1060  000E88  6F68               	movwf	_pBDTEntryIn& (0+255),b
  1061                           
  1062                           ; BSR set to: 0
  1063                           ;usb_device.c: 375: UEP0 = 0x06|0x10;
  1064  000E8A  0E16               	movlw	22
  1065  000E8C  6E70               	movwf	3952,c	;volatile
  1066                           
  1067                           ; BSR set to: 0
  1068                           ;usb_device.c: 377: BDT[0].ADR = ((uint16_t)(&SetupPkt));
  1069  000E8E  0E04               	movlw	4
  1070  000E90  0104               	movlb	4	; () banked
  1071  000E92  6F03               	movwf	3,b	;volatile
  1072  000E94  0E20               	movlw	32
  1073  000E96  0104               	movlb	4	; () banked
  1074  000E98  6F02               	movwf	2,b	;volatile
  1075                           
  1076                           ; BSR set to: 4
  1077                           ;usb_device.c: 378: BDT[0].CNT = 8;
  1078  000E9A  0E08               	movlw	8
  1079  000E9C  0104               	movlb	4	; () banked
  1080  000E9E  6F01               	movwf	1,b	;volatile
  1081                           
  1082                           ; BSR set to: 4
  1083                           ;usb_device.c: 379: BDT[0].STAT.Val = 0x00|0x04;
  1084  000EA0  0E04               	movlw	4
  1085  000EA2  0104               	movlb	4	; () banked
  1086  000EA4  6F00               	movwf	0,b	;volatile
  1087                           
  1088                           ; BSR set to: 4
  1089                           ;usb_device.c: 380: BDT[0].STAT.Val |= 0x80;
  1090  000EA6  0104               	movlb	4	; () banked
  1091  000EA8  8F00               	bsf	0,7,b	;volatile
  1092                           
  1093                           ; BSR set to: 4
  1094                           ;usb_device.c: 383: USBActiveConfiguration = 0;
  1095  000EAA  0E00               	movlw	0
  1096  000EAC  6E4C               	movwf	_USBActiveConfiguration,c	;volatile
  1097                           
  1098                           ; BSR set to: 4
  1099                           ;usb_device.c: 385: USB1msTickCount = 0;
  1100  000EAE  0E00               	movlw	0
  1101  000EB0  6E33               	movwf	_USB1msTickCount,c	;volatile
  1102  000EB2  0E00               	movlw	0
  1103  000EB4  6E34               	movwf	_USB1msTickCount+1,c	;volatile
  1104  000EB6  0E00               	movlw	0
  1105  000EB8  6E35               	movwf	_USB1msTickCount+2,c	;volatile
  1106  000EBA  0E00               	movlw	0
  1107  000EBC  6E36               	movwf	_USB1msTickCount+3,c	;volatile
  1108                           
  1109                           ; BSR set to: 4
  1110                           ;usb_device.c: 386: USBTicksSinceSuspendEnd = 0;
  1111  000EBE  0E00               	movlw	0
  1112  000EC0  6E48               	movwf	_USBTicksSinceSuspendEnd,c	;volatile
  1113                           
  1114                           ; BSR set to: 4
  1115                           ;usb_device.c: 389: USBDeviceState = DETACHED_STATE;
  1116  000EC2  0E00               	movlw	0
  1117  000EC4  0100               	movlb	0	; () banked
  1118  000EC6  6F78               	movwf	_USBDeviceState& (0+255),b	;volatile
  1119                           
  1120                           ; BSR set to: 0
  1121  000EC8  0012               	return	
  1122  000ECA                     __end_of_USBDeviceInit:
  1123                           	opt stack 0
  1124                           tblptru	equ	0xFF8
  1125                           prodh	equ	0xFF4
  1126                           prodl	equ	0xFF3
  1127                           postinc0	equ	0xFEE
  1128                           wreg	equ	0xFE8
  1129                           indf2	equ	0xFDF
  1130                           postinc2	equ	0xFDE
  1131                           postdec2	equ	0xFDD
  1132                           fsr2h	equ	0xFDA
  1133                           fsr2l	equ	0xFD9
  1134                           status	equ	0xFD8
  1135                           
  1136 ;; *************** function _memset *****************
  1137 ;; Defined at:
  1138 ;;		line 8 in file "/opt/microchip/xc8/v1.33/sources/common/memset.c"
  1139 ;; Parameters:    Size  Location     Type
  1140 ;;  p1              2    0[BANK0 ] PTR void 
  1141 ;;		 -> USBAlternateInterface(1), BDT(32), UEP1(1), 
  1142 ;;  c               2    2[BANK0 ] int 
  1143 ;;  n               2    4[BANK0 ] unsigned int 
  1144 ;; Auto vars:     Size  Location     Type
  1145 ;;  p               2    6[BANK0 ] PTR unsigned char 
  1146 ;;		 -> USBAlternateInterface(1), BDT(32), UEP1(1), 
  1147 ;; Return value:  Size  Location     Type
  1148 ;;                  2    0[BANK0 ] PTR void 
  1149 ;; Registers used:
  1150 ;;		wreg, fsr2l, fsr2h, status,2, status,0
  1151 ;; Tracked objects:
  1152 ;;		On entry : 0/0
  1153 ;;		On exit  : 0/0
  1154 ;;		Unchanged: 0/0
  1155 ;; Data sizes:     COMRAM   BANK0   BANK1   BANK2   BANK3   BANK4   BANK5   BANK6   BANK7
  1156 ;;      Params:         0       6       0       0       0       0       0       0       0
  1157 ;;      Locals:         0       2       0       0       0       0       0       0       0
  1158 ;;      Temps:          0       0       0       0       0       0       0       0       0
  1159 ;;      Totals:         0       8       0       0       0       0       0       0       0
  1160 ;;Total ram usage:        8 bytes
  1161 ;; Hardware stack levels used:    1
  1162 ;; Hardware stack levels required when called:   10
  1163 ;; This function calls:
  1164 ;;		Nothing
  1165 ;; This function is called by:
  1166 ;;		_USBDeviceInit
  1167 ;; This function uses a non-reentrant model
  1168 ;;
  1169                           
  1170                           	psect	text2
  1171  002244                     __ptext2:
  1172                           	opt stack 0
  1173  002244                     _memset:
  1174                           	opt stack 19
  1175                           
  1176                           ; BSR set to: 0
  1177                           ;incstack = 0
  1178  002244  0100               	movlb	0	; () banked
  1179  002246  C080  F086         	movff	memset@p1+1,memset@p+1
  1180  00224A  0100               	movlb	0	; () banked
  1181  00224C  C07F  F085         	movff	memset@p1,memset@p
  1182  002250  D00A               	goto	l3460
  1183  002252                     l3456:
  1184                           
  1185                           ; BSR set to: 0
  1186  002252  C085  FFD9         	movff	memset@p,fsr2l
  1187  002256  C086  FFDA         	movff	memset@p+1,fsr2h
  1188  00225A  0100               	movlb	0	; () banked
  1189  00225C  C081  FFDF         	movff	memset@c,indf2
  1190                           
  1191                           ; BSR set to: 0
  1192  002260  0100               	movlb	0	; () banked
  1193  002262  4B85               	infsnz	memset@p& (0+255),f,b
  1194  002264  2B86               	incf	(memset@p+1)& (0+255),f,b
  1195  002266                     l3460:
  1196                           
  1197                           ; BSR set to: 0
  1198  002266  0100               	movlb	0	; () banked
  1199  002268  0783               	decf	memset@n& (0+255),f,b
  1200  00226A  A0D8               	btfss	status,0,c
  1201  00226C  0784               	decf	(memset@n+1)& (0+255),f,b
  1202  00226E  0100               	movlb	0	; () banked
  1203  002270  2983               	incf	memset@n& (0+255),w,b
  1204  002272  B4D8               	btfsc	status,2,c
  1205  002274  2984               	incf	(memset@n+1)& (0+255),w,b
  1206  002276  B4D8               	btfsc	status,2,c
  1207                           
  1208                           ; BSR set to: 0
  1209                           
  1210                           ; BSR set to: 0
  1211                           ;	Return value of _memset is never used
  1212  002278  0012               	return	
  1213  00227A  D7EB               	goto	l3456
  1214  00227C                     __end_of_memset:
  1215                           	opt stack 0
  1216                           tblptru	equ	0xFF8
  1217                           prodh	equ	0xFF4
  1218                           prodl	equ	0xFF3
  1219                           postinc0	equ	0xFEE
  1220                           wreg	equ	0xFE8
  1221                           indf2	equ	0xFDF
  1222                           postinc2	equ	0xFDE
  1223                           postdec2	equ	0xFDD
  1224                           fsr2h	equ	0xFDA
  1225                           fsr2l	equ	0xFD9
  1226                           status	equ	0xFD8
  1227                           
  1228 ;; *************** function _USBDeviceAttach *****************
  1229 ;; Defined at:
  1230 ;;		line 1371 in file "../src/usb_device.c"
  1231 ;; Parameters:    Size  Location     Type
  1232 ;;		None
  1233 ;; Auto vars:     Size  Location     Type
  1234 ;;		None
  1235 ;; Return value:  Size  Location     Type
  1236 ;;		None               void
  1237 ;; Registers used:
  1238 ;;		wreg, status,2
  1239 ;; Tracked objects:
  1240 ;;		On entry : 0/0
  1241 ;;		On exit  : 0/0
  1242 ;;		Unchanged: 0/0
  1243 ;; Data sizes:     COMRAM   BANK0   BANK1   BANK2   BANK3   BANK4   BANK5   BANK6   BANK7
  1244 ;;      Params:         0       0       0       0       0       0       0       0       0
  1245 ;;      Locals:         0       0       0       0       0       0       0       0       0
  1246 ;;      Temps:          0       0       0       0       0       0       0       0       0
  1247 ;;      Totals:         0       0       0       0       0       0       0       0       0
  1248 ;;Total ram usage:        0 bytes
  1249 ;; Hardware stack levels used:    1
  1250 ;; Hardware stack levels required when called:   10
  1251 ;; This function calls:
  1252 ;;		Nothing
  1253 ;; This function is called by:
  1254 ;;		_main
  1255 ;; This function uses a non-reentrant model
  1256 ;;
  1257                           
  1258                           	psect	text3
  1259  002320                     __ptext3:
  1260                           	opt stack 0
  1261  002320                     _USBDeviceAttach:
  1262                           	opt stack 20
  1263                           
  1264                           ;usb_device.c: 1375: {
  1265                           ;usb_device.c: 1376: if(1 == 1)
  1266                           
  1267                           ; BSR set to: 0
  1268                           ;incstack = 0
  1269  002320  0100               	movlb	0	; () banked
  1270  002322  6778               	tstfsz	_USBDeviceState& (0+255),b	;volatile
  1271  002324  D015               	goto	l474
  1272                           
  1273                           ; BSR set to: 0
  1274                           ;usb_device.c: 1377: {
  1275                           ;usb_device.c: 1379: UCON = 0;
  1276  002326  0E00               	movlw	0
  1277  002328  6E6D               	movwf	3949,c	;volatile
  1278                           
  1279                           ;usb_device.c: 1382: UIE = 0;
  1280  00232A  0E00               	movlw	0
  1281  00232C  6E69               	movwf	3945,c	;volatile
  1282                           
  1283                           ;usb_device.c: 1386: { UCFG = 0x10 | 0x00 | 0x04 | 0x02; UEIE = 0x9F; UIE = 0x39 | 0x40 
      +                          | 0x02; };
  1284  00232E  0E16               	movlw	22
  1285  002330  6E6F               	movwf	3951,c	;volatile
  1286  002332  0E9F               	movlw	159
  1287  002334  6E6B               	movwf	3947,c	;volatile
  1288  002336  0E7B               	movlw	123
  1289  002338  6E69               	movwf	3945,c	;volatile
  1290                           
  1291                           ; BSR set to: 0
  1292                           ;usb_device.c: 1388: {RCONbits.IPEN = 1;IPR2bits.USBIP = 1;PIE2bits.USBIE = 1;INTCONbits
      +                          .GIEH = 1;};
  1293  00233A  8ED0               	bsf	4048,7,c	;volatile
  1294                           
  1295                           ; BSR set to: 0
  1296  00233C  8AA2               	bsf	4002,5,c	;volatile
  1297                           
  1298                           ; BSR set to: 0
  1299  00233E  8AA0               	bsf	4000,5,c	;volatile
  1300                           
  1301                           ; BSR set to: 0
  1302  002340  8EF2               	bsf	intcon,7,c	;volatile
  1303                           
  1304                           ;usb_device.c: 1391: while(!UCONbits.USBEN){UCONbits.USBEN = 1;}
  1305  002342  D001               	goto	l471
  1306  002344                     l472:
  1307  002344  866D               	bsf	3949,3,c	;volatile
  1308  002346                     l471:
  1309  002346  A66D               	btfss	3949,3,c	;volatile
  1310  002348  D7FD               	goto	l472
  1311                           
  1312                           ;usb_device.c: 1394: USBDeviceState = ATTACHED_STATE;
  1313  00234A  0E01               	movlw	1
  1314  00234C  0100               	movlb	0	; () banked
  1315  00234E  6F78               	movwf	_USBDeviceState& (0+255),b	;volatile
  1316  002350                     l474:
  1317                           
  1318                           ; BSR set to: 0
  1319  002350  0012               	return	
  1320  002352                     __end_of_USBDeviceAttach:
  1321                           	opt stack 0
  1322                           tblptru	equ	0xFF8
  1323                           prodh	equ	0xFF4
  1324                           prodl	equ	0xFF3
  1325                           intcon	equ	0xFF2
  1326                           postinc0	equ	0xFEE
  1327                           wreg	equ	0xFE8
  1328                           indf2	equ	0xFDF
  1329                           postinc2	equ	0xFDE
  1330                           postdec2	equ	0xFDD
  1331                           fsr2h	equ	0xFDA
  1332                           fsr2l	equ	0xFD9
  1333                           status	equ	0xFD8
  1334                           
  1335 ;; *************** function _SYSTEM_Initialize *****************
  1336 ;; Defined at:
  1337 ;;		line 84 in file "../src/system_config/picdem_fs_usb/system.c"
  1338 ;; Parameters:    Size  Location     Type
  1339 ;;  state           1    wreg     enum E5312
  1340 ;; Auto vars:     Size  Location     Type
  1341 ;;  state           1    1[BANK0 ] enum E5312
  1342 ;; Return value:  Size  Location     Type
  1343 ;;		None               void
  1344 ;; Registers used:
  1345 ;;		wreg, status,2, status,0, cstack
  1346 ;; Tracked objects:
  1347 ;;		On entry : 0/0
  1348 ;;		On exit  : 0/0
  1349 ;;		Unchanged: 0/0
  1350 ;; Data sizes:     COMRAM   BANK0   BANK1   BANK2   BANK3   BANK4   BANK5   BANK6   BANK7
  1351 ;;      Params:         0       0       0       0       0       0       0       0       0
  1352 ;;      Locals:         0       1       0       0       0       0       0       0       0
  1353 ;;      Temps:          0       0       0       0       0       0       0       0       0
  1354 ;;      Totals:         0       1       0       0       0       0       0       0       0
  1355 ;;Total ram usage:        1 bytes
  1356 ;; Hardware stack levels used:    1
  1357 ;; Hardware stack levels required when called:   11
  1358 ;; This function calls:
  1359 ;;		_ADC_Enable
  1360 ;;		_ADC_SetConfiguration
  1361 ;;		_BUTTON_Enable
  1362 ;;		_LED_Enable
  1363 ;; This function is called by:
  1364 ;;		_main
  1365 ;; This function uses a non-reentrant model
  1366 ;;
  1367                           
  1368                           	psect	text4
  1369  00227C                     __ptext4:
  1370                           	opt stack 0
  1371  00227C                     _SYSTEM_Initialize:
  1372                           	opt stack 19
  1373                           
  1374                           ; BSR set to: 0
  1375                           ;incstack = 0
  1376                           ;SYSTEM_Initialize@state stored from wreg
  1377  00227C  0100               	movlb	0	; () banked
  1378  00227E  6F80               	movwf	SYSTEM_Initialize@state& (0+255),b
  1379                           
  1380                           ; BSR set to: 0
  1381                           ;system.c: 86: switch(state)
  1382  002280  D010               	goto	l3628
  1383  002282                     l3620:
  1384                           
  1385                           ; BSR set to: 0
  1386                           ;system.c: 89: LED_Enable(LED_D1);
  1387  002282  0E01               	movlw	1
  1388  002284  ECCB  F010         	call	_LED_Enable
  1389                           
  1390                           ;system.c: 90: LED_Enable(LED_D2);
  1391  002288  0E02               	movlw	2
  1392  00228A  ECCB  F010         	call	_LED_Enable
  1393                           
  1394                           ;system.c: 92: BUTTON_Enable(BUTTON_S2);
  1395  00228E  0E01               	movlw	1
  1396  002290  EC05  F012         	call	_BUTTON_Enable
  1397                           
  1398                           ;system.c: 94: ADC_SetConfiguration(ADC_CONFIGURATION_DEFAULT);
  1399  002294  0E00               	movlw	0
  1400  002296  EC39  F012         	call	_ADC_SetConfiguration
  1401                           
  1402                           ;system.c: 95: ADC_Enable(ADC_CHANNEL_0);
  1403  00229A  0E00               	movlw	0
  1404  00229C  EC55  F012         	call	_ADC_Enable
  1405                           
  1406                           ;system.c: 96: break;
  1407  0022A0  D008               	goto	l18
  1408  0022A2                     l3628:
  1409  0022A2  0100               	movlb	0	; () banked
  1410  0022A4  5180               	movf	SYSTEM_Initialize@state& (0+255),w,b
  1411                           
  1412                           ; Switch size 1, requested type "space"
  1413                           ; Number of cases is 3, Range of values is 0 to 2
  1414                           ; switch strategies available:
  1415                           ; Name         Instructions Cycles
  1416                           ; simple_byte           10     6 (average)
  1417                           ;	Chosen strategy is simple_byte
  1418  0022A6  0A00               	xorlw	0	; case 0
  1419  0022A8  B4D8               	btfsc	status,2,c
  1420  0022AA  D7EB               	goto	l3620
  1421  0022AC  0A01               	xorlw	1	; case 1
  1422  0022AE  A4D8               	btfss	status,2,c
  1423  0022B0  0A03               	xorlw	3	; case 2
  1424  0022B2                     l18:
  1425  0022B2  0012               	return	
  1426  0022B4                     __end_of_SYSTEM_Initialize:
  1427                           	opt stack 0
  1428                           tblptru	equ	0xFF8
  1429                           prodh	equ	0xFF4
  1430                           prodl	equ	0xFF3
  1431                           intcon	equ	0xFF2
  1432                           postinc0	equ	0xFEE
  1433                           wreg	equ	0xFE8
  1434                           indf2	equ	0xFDF
  1435                           postinc2	equ	0xFDE
  1436                           postdec2	equ	0xFDD
  1437                           fsr2h	equ	0xFDA
  1438                           fsr2l	equ	0xFD9
  1439                           status	equ	0xFD8
  1440                           
  1441 ;; *************** function _LED_Enable *****************
  1442 ;; Defined at:
  1443 ;;		line 257 in file "../../deviceDefinitions/leds.c"
  1444 ;; Parameters:    Size  Location     Type
  1445 ;;  led             1    wreg     enum E2
  1446 ;; Auto vars:     Size  Location     Type
  1447 ;;  led             1    0[BANK0 ] enum E2
  1448 ;; Return value:  Size  Location     Type
  1449 ;;		None               void
  1450 ;; Registers used:
  1451 ;;		wreg, status,2, status,0
  1452 ;; Tracked objects:
  1453 ;;		On entry : 0/0
  1454 ;;		On exit  : 0/0
  1455 ;;		Unchanged: 0/0
  1456 ;; Data sizes:     COMRAM   BANK0   BANK1   BANK2   BANK3   BANK4   BANK5   BANK6   BANK7
  1457 ;;      Params:         0       0       0       0       0       0       0       0       0
  1458 ;;      Locals:         0       1       0       0       0       0       0       0       0
  1459 ;;      Temps:          0       0       0       0       0       0       0       0       0
  1460 ;;      Totals:         0       1       0       0       0       0       0       0       0
  1461 ;;Total ram usage:        1 bytes
  1462 ;; Hardware stack levels used:    1
  1463 ;; Hardware stack levels required when called:   10
  1464 ;; This function calls:
  1465 ;;		Nothing
  1466 ;; This function is called by:
  1467 ;;		_SYSTEM_Initialize
  1468 ;; This function uses a non-reentrant model
  1469 ;;
  1470                           
  1471                           	psect	text5
  1472  002196                     __ptext5:
  1473                           	opt stack 0
  1474  002196                     _LED_Enable:
  1475                           	opt stack 19
  1476                           
  1477                           ;incstack = 0
  1478                           ;LED_Enable@led stored from wreg
  1479  002196  0100               	movlb	0	; () banked
  1480  002198  6F7F               	movwf	LED_Enable@led& (0+255),b
  1481                           
  1482                           ; BSR set to: 0
  1483                           ;leds.c: 259: switch(led)
  1484  00219A  D008               	goto	l3352
  1485  00219C                     l267:
  1486                           
  1487                           ; BSR set to: 0
  1488                           ;leds.c: 262: TRISDbits.TRISD0 = 0;
  1489  00219C  9095               	bcf	3989,0,c	;volatile
  1490                           
  1491                           ;leds.c: 263: break;
  1492  00219E  D017               	goto	l273
  1493  0021A0                     l269:
  1494                           
  1495                           ; BSR set to: 0
  1496                           ;leds.c: 266: TRISDbits.TRISD1 = 0;
  1497  0021A0  9295               	bcf	3989,1,c	;volatile
  1498                           
  1499                           ;leds.c: 267: break;
  1500  0021A2  D015               	goto	l273
  1501  0021A4                     l270:
  1502                           
  1503                           ; BSR set to: 0
  1504                           ;leds.c: 270: TRISDbits.TRISD2 = 0;
  1505  0021A4  9495               	bcf	3989,2,c	;volatile
  1506                           
  1507                           ;leds.c: 271: break;
  1508  0021A6  D013               	goto	l273
  1509  0021A8                     l271:
  1510                           
  1511                           ; BSR set to: 0
  1512                           ;leds.c: 274: TRISDbits.TRISD3 = 0;
  1513  0021A8  9695               	bcf	3989,3,c	;volatile
  1514                           
  1515                           ;leds.c: 275: break;
  1516  0021AA  D011               	goto	l273
  1517  0021AC                     l3352:
  1518                           
  1519                           ; BSR set to: 0
  1520  0021AC  0100               	movlb	0	; () banked
  1521  0021AE  517F               	movf	LED_Enable@led& (0+255),w,b
  1522                           
  1523                           ; Switch size 1, requested type "space"
  1524                           ; Number of cases is 5, Range of values is 0 to 4
  1525                           ; switch strategies available:
  1526                           ; Name         Instructions Cycles
  1527                           ; simple_byte           16     9 (average)
  1528                           ;	Chosen strategy is simple_byte
  1529  0021B0  0A00               	xorlw	0	; case 0
  1530  0021B2  B4D8               	btfsc	status,2,c
  1531  0021B4  D00C               	goto	l273
  1532  0021B6  0A01               	xorlw	1	; case 1
  1533  0021B8  B4D8               	btfsc	status,2,c
  1534  0021BA  D7F0               	goto	l267
  1535  0021BC  0A03               	xorlw	3	; case 2
  1536  0021BE  B4D8               	btfsc	status,2,c
  1537  0021C0  D7EF               	goto	l269
  1538  0021C2  0A01               	xorlw	1	; case 3
  1539  0021C4  B4D8               	btfsc	status,2,c
  1540  0021C6  D7EE               	goto	l270
  1541  0021C8  0A07               	xorlw	7	; case 4
  1542  0021CA  B4D8               	btfsc	status,2,c
  1543  0021CC  D7ED               	goto	l271
  1544  0021CE                     l273:
  1545                           
  1546                           ; BSR set to: 0
  1547  0021CE  0012               	return	
  1548  0021D0                     __end_of_LED_Enable:
  1549                           	opt stack 0
  1550                           tblptru	equ	0xFF8
  1551                           prodh	equ	0xFF4
  1552                           prodl	equ	0xFF3
  1553                           intcon	equ	0xFF2
  1554                           postinc0	equ	0xFEE
  1555                           wreg	equ	0xFE8
  1556                           indf2	equ	0xFDF
  1557                           postinc2	equ	0xFDE
  1558                           postdec2	equ	0xFDD
  1559                           fsr2h	equ	0xFDA
  1560                           fsr2l	equ	0xFD9
  1561                           status	equ	0xFD8
  1562                           
  1563 ;; *************** function _BUTTON_Enable *****************
  1564 ;; Defined at:
  1565 ;;		line 128 in file "../../deviceDefinitions/buttons.c"
  1566 ;; Parameters:    Size  Location     Type
  1567 ;;  button          1    wreg     enum E5280
  1568 ;; Auto vars:     Size  Location     Type
  1569 ;;  button          1    0[BANK0 ] enum E5280
  1570 ;; Return value:  Size  Location     Type
  1571 ;;		None               void
  1572 ;; Registers used:
  1573 ;;		wreg, status,2, status,0
  1574 ;; Tracked objects:
  1575 ;;		On entry : 0/0
  1576 ;;		On exit  : 0/0
  1577 ;;		Unchanged: 0/0
  1578 ;; Data sizes:     COMRAM   BANK0   BANK1   BANK2   BANK3   BANK4   BANK5   BANK6   BANK7
  1579 ;;      Params:         0       0       0       0       0       0       0       0       0
  1580 ;;      Locals:         0       1       0       0       0       0       0       0       0
  1581 ;;      Temps:          0       0       0       0       0       0       0       0       0
  1582 ;;      Totals:         0       1       0       0       0       0       0       0       0
  1583 ;;Total ram usage:        1 bytes
  1584 ;; Hardware stack levels used:    1
  1585 ;; Hardware stack levels required when called:   10
  1586 ;; This function calls:
  1587 ;;		Nothing
  1588 ;; This function is called by:
  1589 ;;		_SYSTEM_Initialize
  1590 ;; This function uses a non-reentrant model
  1591 ;;
  1592                           
  1593                           	psect	text6
  1594  00240A                     __ptext6:
  1595                           	opt stack 0
  1596  00240A                     _BUTTON_Enable:
  1597                           	opt stack 19
  1598                           
  1599                           ; BSR set to: 0
  1600                           ;incstack = 0
  1601                           ;BUTTON_Enable@button stored from wreg
  1602  00240A  0100               	movlb	0	; () banked
  1603  00240C  6F7F               	movwf	BUTTON_Enable@button& (0+255),b
  1604                           
  1605                           ; BSR set to: 0
  1606                           ;buttons.c: 130: switch(button)
  1607  00240E  D004               	goto	l3358
  1608  002410                     l215:
  1609                           
  1610                           ; BSR set to: 0
  1611                           ;buttons.c: 133: TRISBbits.TRISB4 = 1;
  1612  002410  8893               	bsf	3987,4,c	;volatile
  1613                           
  1614                           ;buttons.c: 134: break;
  1615  002412  D00D               	goto	l219
  1616  002414                     l217:
  1617                           
  1618                           ; BSR set to: 0
  1619                           ;buttons.c: 137: TRISBbits.TRISB5 = 1;
  1620  002414  8A93               	bsf	3987,5,c	;volatile
  1621                           
  1622                           ;buttons.c: 138: break;
  1623  002416  D00B               	goto	l219
  1624  002418                     l3358:
  1625                           
  1626                           ; BSR set to: 0
  1627  002418  0100               	movlb	0	; () banked
  1628  00241A  517F               	movf	BUTTON_Enable@button& (0+255),w,b
  1629                           
  1630                           ; Switch size 1, requested type "space"
  1631                           ; Number of cases is 3, Range of values is 0 to 2
  1632                           ; switch strategies available:
  1633                           ; Name         Instructions Cycles
  1634                           ; simple_byte           10     6 (average)
  1635                           ;	Chosen strategy is simple_byte
  1636  00241C  0A00               	xorlw	0	; case 0
  1637  00241E  B4D8               	btfsc	status,2,c
  1638  002420  D006               	goto	l219
  1639  002422  0A01               	xorlw	1	; case 1
  1640  002424  B4D8               	btfsc	status,2,c
  1641  002426  D7F4               	goto	l215
  1642  002428  0A03               	xorlw	3	; case 2
  1643  00242A  B4D8               	btfsc	status,2,c
  1644  00242C  D7F3               	goto	l217
  1645  00242E                     l219:
  1646                           
  1647                           ; BSR set to: 0
  1648  00242E  0012               	return	
  1649  002430                     __end_of_BUTTON_Enable:
  1650                           	opt stack 0
  1651                           tblptru	equ	0xFF8
  1652                           prodh	equ	0xFF4
  1653                           prodl	equ	0xFF3
  1654                           intcon	equ	0xFF2
  1655                           postinc0	equ	0xFEE
  1656                           wreg	equ	0xFE8
  1657                           indf2	equ	0xFDF
  1658                           postinc2	equ	0xFDE
  1659                           postdec2	equ	0xFDD
  1660                           fsr2h	equ	0xFDA
  1661                           fsr2l	equ	0xFD9
  1662                           status	equ	0xFD8
  1663                           
  1664 ;; *************** function _ADC_SetConfiguration *****************
  1665 ;; Defined at:
  1666 ;;		line 177 in file "../../deviceDefinitions/adc.c"
  1667 ;; Parameters:    Size  Location     Type
  1668 ;;  configuratio    1    wreg     enum E33
  1669 ;; Auto vars:     Size  Location     Type
  1670 ;;  configuratio    1    0[BANK0 ] enum E33
  1671 ;; Return value:  Size  Location     Type
  1672 ;;                  1    wreg      unsigned char 
  1673 ;; Registers used:
  1674 ;;		wreg, status,2
  1675 ;; Tracked objects:
  1676 ;;		On entry : 0/0
  1677 ;;		On exit  : 0/0
  1678 ;;		Unchanged: 0/0
  1679 ;; Data sizes:     COMRAM   BANK0   BANK1   BANK2   BANK3   BANK4   BANK5   BANK6   BANK7
  1680 ;;      Params:         0       0       0       0       0       0       0       0       0
  1681 ;;      Locals:         0       1       0       0       0       0       0       0       0
  1682 ;;      Temps:          0       0       0       0       0       0       0       0       0
  1683 ;;      Totals:         0       1       0       0       0       0       0       0       0
  1684 ;;Total ram usage:        1 bytes
  1685 ;; Hardware stack levels used:    1
  1686 ;; Hardware stack levels required when called:   10
  1687 ;; This function calls:
  1688 ;;		Nothing
  1689 ;; This function is called by:
  1690 ;;		_SYSTEM_Initialize
  1691 ;; This function uses a non-reentrant model
  1692 ;;
  1693                           
  1694                           	psect	text7
  1695  002472                     __ptext7:
  1696                           	opt stack 0
  1697  002472                     _ADC_SetConfiguration:
  1698                           	opt stack 19
  1699                           
  1700                           ; BSR set to: 0
  1701                           ;incstack = 0
  1702                           ;ADC_SetConfiguration@configuration stored from wreg
  1703  002472  0100               	movlb	0	; () banked
  1704  002474  6F7F               	movwf	ADC_SetConfiguration@configuration& (0+255),b
  1705                           
  1706                           ; BSR set to: 0
  1707                           ;adc.c: 179: if(configuration == ADC_CONFIGURATION_DEFAULT)
  1708  002476  0100               	movlb	0	; () banked
  1709  002478  677F               	tstfsz	ADC_SetConfiguration@configuration& (0+255),b
  1710  00247A  D009               	goto	l199
  1711                           
  1712                           ; BSR set to: 0
  1713                           ;adc.c: 180: {
  1714                           ;adc.c: 181: ADCON0=0x01;
  1715  00247C  0E01               	movlw	1
  1716  00247E  6EC2               	movwf	4034,c	;volatile
  1717                           
  1718                           ; BSR set to: 0
  1719                           ;adc.c: 182: ADCON1bits.PCFG = 0b1110;
  1720  002480  50C1               	movf	4033,w,c	;volatile
  1721  002482  0BF0               	andlw	-16
  1722  002484  090E               	iorlw	14
  1723  002486  6EC1               	movwf	4033,c	;volatile
  1724                           
  1725                           ; BSR set to: 0
  1726                           ;adc.c: 183: ADCON2=0x3C;
  1727  002488  0E3C               	movlw	60
  1728  00248A  6EC0               	movwf	4032,c	;volatile
  1729                           
  1730                           ; BSR set to: 0
  1731                           ;adc.c: 184: ADCON2bits.ADFM = 1;
  1732  00248C  8EC0               	bsf	4032,7,c	;volatile
  1733  00248E                     l199:
  1734                           
  1735                           ; BSR set to: 0
  1736  00248E  0012               	return	
  1737  002490                     __end_of_ADC_SetConfiguration:
  1738                           	opt stack 0
  1739                           tblptru	equ	0xFF8
  1740                           prodh	equ	0xFF4
  1741                           prodl	equ	0xFF3
  1742                           intcon	equ	0xFF2
  1743                           postinc0	equ	0xFEE
  1744                           wreg	equ	0xFE8
  1745                           indf2	equ	0xFDF
  1746                           postinc2	equ	0xFDE
  1747                           postdec2	equ	0xFDD
  1748                           fsr2h	equ	0xFDA
  1749                           fsr2l	equ	0xFD9
  1750                           status	equ	0xFD8
  1751                           
  1752 ;; *************** function _ADC_Enable *****************
  1753 ;; Defined at:
  1754 ;;		line 152 in file "../../deviceDefinitions/adc.c"
  1755 ;; Parameters:    Size  Location     Type
  1756 ;;  channel         1    wreg     enum E30
  1757 ;; Auto vars:     Size  Location     Type
  1758 ;;  channel         1    0[BANK0 ] enum E30
  1759 ;; Return value:  Size  Location     Type
  1760 ;;                  1    wreg      unsigned char 
  1761 ;; Registers used:
  1762 ;;		wreg, status,2, status,0
  1763 ;; Tracked objects:
  1764 ;;		On entry : 0/0
  1765 ;;		On exit  : 0/0
  1766 ;;		Unchanged: 0/0
  1767 ;; Data sizes:     COMRAM   BANK0   BANK1   BANK2   BANK3   BANK4   BANK5   BANK6   BANK7
  1768 ;;      Params:         0       0       0       0       0       0       0       0       0
  1769 ;;      Locals:         0       1       0       0       0       0       0       0       0
  1770 ;;      Temps:          0       0       0       0       0       0       0       0       0
  1771 ;;      Totals:         0       1       0       0       0       0       0       0       0
  1772 ;;Total ram usage:        1 bytes
  1773 ;; Hardware stack levels used:    1
  1774 ;; Hardware stack levels required when called:   10
  1775 ;; This function calls:
  1776 ;;		Nothing
  1777 ;; This function is called by:
  1778 ;;		_SYSTEM_Initialize
  1779 ;; This function uses a non-reentrant model
  1780 ;;
  1781                           
  1782                           	psect	text8
  1783  0024AA                     __ptext8:
  1784                           	opt stack 0
  1785  0024AA                     _ADC_Enable:
  1786                           	opt stack 19
  1787                           
  1788                           ; BSR set to: 0
  1789                           ;incstack = 0
  1790                           ;ADC_Enable@channel stored from wreg
  1791  0024AA  0100               	movlb	0	; () banked
  1792  0024AC  6F7F               	movwf	ADC_Enable@channel& (0+255),b
  1793                           
  1794                           ; BSR set to: 0
  1795                           ;adc.c: 154: switch(channel)
  1796  0024AE  D002               	goto	l3376
  1797  0024B0                     l192:
  1798                           
  1799                           ; BSR set to: 0
  1800                           ;adc.c: 157: TRISAbits.TRISA0 = 1;
  1801  0024B0  8092               	bsf	3986,0,c	;volatile
  1802                           
  1803                           ;adc.c: 158: return 1;
  1804                           ;	Return value of _ADC_Enable is never used
  1805  0024B2  D005               	goto	l193
  1806  0024B4                     l3376:
  1807                           
  1808                           ; BSR set to: 0
  1809  0024B4  0100               	movlb	0	; () banked
  1810  0024B6  517F               	movf	ADC_Enable@channel& (0+255),w,b
  1811                           
  1812                           ; Switch size 1, requested type "space"
  1813                           ; Number of cases is 1, Range of values is 0 to 0
  1814                           ; switch strategies available:
  1815                           ; Name         Instructions Cycles
  1816                           ; simple_byte            4     3 (average)
  1817                           ;	Chosen strategy is simple_byte
  1818  0024B8  0A00               	xorlw	0	; case 0
  1819  0024BA  B4D8               	btfsc	status,2,c
  1820  0024BC  D7F9               	goto	l192
  1821  0024BE                     l193:
  1822                           
  1823                           ; BSR set to: 0
  1824  0024BE  0012               	return	
  1825  0024C0                     __end_of_ADC_Enable:
  1826                           	opt stack 0
  1827                           tblptru	equ	0xFF8
  1828                           prodh	equ	0xFF4
  1829                           prodl	equ	0xFF3
  1830                           intcon	equ	0xFF2
  1831                           postinc0	equ	0xFEE
  1832                           wreg	equ	0xFE8
  1833                           indf2	equ	0xFDF
  1834                           postinc2	equ	0xFDE
  1835                           postdec2	equ	0xFDD
  1836                           fsr2h	equ	0xFDA
  1837                           fsr2l	equ	0xFD9
  1838                           status	equ	0xFD8
  1839                           
  1840 ;; *************** function _APP_DeviceCustomHIDTasks *****************
  1841 ;; Defined at:
  1842 ;;		line 107 in file "../src/app_device_custom_hid.c"
  1843 ;; Parameters:    Size  Location     Type
  1844 ;;		None
  1845 ;; Auto vars:     Size  Location     Type
  1846 ;;  pot             2   16[BANK0 ] unsigned int 
  1847 ;; Return value:  Size  Location     Type
  1848 ;;		None               void
  1849 ;; Registers used:
  1850 ;;		wreg, fsr2l, fsr2h, status,2, status,0, prodl, prodh, cstack
  1851 ;; Tracked objects:
  1852 ;;		On entry : 0/0
  1853 ;;		On exit  : 0/0
  1854 ;;		Unchanged: 0/0
  1855 ;; Data sizes:     COMRAM   BANK0   BANK1   BANK2   BANK3   BANK4   BANK5   BANK6   BANK7
  1856 ;;      Params:         0       0       0       0       0       0       0       0       0
  1857 ;;      Locals:         0       8       0       0       0       0       0       0       0
  1858 ;;      Temps:          0       3       0       0       0       0       0       0       0
  1859 ;;      Totals:         0      11       0       0       0       0       0       0       0
  1860 ;;Total ram usage:       11 bytes
  1861 ;; Hardware stack levels used:    1
  1862 ;; Hardware stack levels required when called:   11
  1863 ;; This function calls:
  1864 ;;		_ADC_Read10bit
  1865 ;;		_BUTTON_IsPressed
  1866 ;;		_LED_Toggle
  1867 ;;		_USBTransferOnePacket
  1868 ;; This function is called by:
  1869 ;;		_main
  1870 ;; This function uses a non-reentrant model
  1871 ;;
  1872                           
  1873                           	psect	text9
  1874  000B82                     __ptext9:
  1875                           	opt stack 0
  1876  000B82                     _APP_DeviceCustomHIDTasks:
  1877                           	opt stack 19
  1878                           
  1879                           ;app_device_custom_hid.c: 110: if((USBOutHandle==0?0:((volatile BDT_ENTRY*)USBOutHandle)
      +                          ->STAT.UOWN) == 0)
  1880                           
  1881                           ; BSR set to: 0
  1882                           ;incstack = 0
  1883  000B82  0100               	movlb	0	; () banked
  1884  000B84  5173               	movf	(_USBOutHandle+1)& (0+255),w,b
  1885  000B86  1172               	iorwf	_USBOutHandle& (0+255),w,b
  1886  000B88  B4D8               	btfsc	status,2,c
  1887  000B8A  D013               	goto	l3736
  1888                           
  1889                           ; BSR set to: 0
  1890  000B8C  C072  FFD9         	movff	_USBOutHandle,fsr2l
  1891  000B90  C073  FFDA         	movff	_USBOutHandle+1,fsr2h
  1892  000B94  AEDF               	btfss	indf2,7,c
  1893  000B96  D004               	goto	u2930
  1894  000B98  0100               	movlb	0	; () banked
  1895  000B9A  6B86               	clrf	??_APP_DeviceCustomHIDTasks& (0+255),b
  1896  000B9C  2B86               	incf	??_APP_DeviceCustomHIDTasks& (0+255),f,b
  1897  000B9E  D002               	goto	u2938
  1898  000BA0                     u2930:
  1899  000BA0  0100               	movlb	0	; () banked
  1900  000BA2  6B86               	clrf	??_APP_DeviceCustomHIDTasks& (0+255),b
  1901  000BA4                     u2938:
  1902  000BA4  0100               	movlb	0	; () banked
  1903  000BA6  5186               	movf	??_APP_DeviceCustomHIDTasks& (0+255),w,b
  1904  000BA8  0100               	movlb	0	; () banked
  1905  000BAA  6F89               	movwf	_APP_DeviceCustomHIDTasks$191& (0+255),b
  1906  000BAC  0100               	movlb	0	; () banked
  1907  000BAE  6B8A               	clrf	(_APP_DeviceCustomHIDTasks$191+1)& (0+255),b
  1908  000BB0  D006               	goto	l3738
  1909  000BB2                     l3736:
  1910                           
  1911                           ; BSR set to: 0
  1912  000BB2  0E00               	movlw	0
  1913  000BB4  0100               	movlb	0	; () banked
  1914  000BB6  6F8A               	movwf	(_APP_DeviceCustomHIDTasks$191+1)& (0+255),b
  1915  000BB8  0E00               	movlw	0
  1916  000BBA  0100               	movlb	0	; () banked
  1917  000BBC  6F89               	movwf	_APP_DeviceCustomHIDTasks$191& (0+255),b
  1918  000BBE                     l3738:
  1919                           
  1920                           ; BSR set to: 0
  1921  000BBE  0100               	movlb	0	; () banked
  1922  000BC0  518A               	movf	(_APP_DeviceCustomHIDTasks$191+1)& (0+255),w,b
  1923  000BC2  1189               	iorwf	_APP_DeviceCustomHIDTasks$191& (0+255),w,b
  1924  000BC4  B4D8               	btfsc	status,2,c
  1925  000BC6  D09C               	goto	l3782
  1926  000BC8  D0BD               	goto	l67
  1927  000BCA                     l3742:
  1928                           
  1929                           ;app_device_custom_hid.c: 118: LED_Toggle(LED_D2);
  1930  000BCA  0E02               	movlw	2
  1931  000BCC  ECE8  F010         	call	_LED_Toggle
  1932                           
  1933                           ;app_device_custom_hid.c: 119: break;
  1934  000BD0  D0A2               	goto	l3784
  1935  000BD2                     l3744:
  1936                           
  1937                           ;app_device_custom_hid.c: 122: if(!(USBInHandle==0?0:((volatile BDT_ENTRY*)USBInHandle)-
      +                          >STAT.UOWN))
  1938  000BD2  0100               	movlb	0	; () banked
  1939  000BD4  5171               	movf	(_USBInHandle+1)& (0+255),w,b
  1940  000BD6  1170               	iorwf	_USBInHandle& (0+255),w,b
  1941  000BD8  B4D8               	btfsc	status,2,c
  1942  000BDA  D013               	goto	l3748
  1943                           
  1944                           ; BSR set to: 0
  1945  000BDC  C070  FFD9         	movff	_USBInHandle,fsr2l
  1946  000BE0  C071  FFDA         	movff	_USBInHandle+1,fsr2h
  1947  000BE4  AEDF               	btfss	indf2,7,c
  1948  000BE6  D004               	goto	u2960
  1949  000BE8  0100               	movlb	0	; () banked
  1950  000BEA  6B86               	clrf	??_APP_DeviceCustomHIDTasks& (0+255),b
  1951  000BEC  2B86               	incf	??_APP_DeviceCustomHIDTasks& (0+255),f,b
  1952  000BEE  D002               	goto	u2968
  1953  000BF0                     u2960:
  1954  000BF0  0100               	movlb	0	; () banked
  1955  000BF2  6B86               	clrf	??_APP_DeviceCustomHIDTasks& (0+255),b
  1956  000BF4                     u2968:
  1957  000BF4  0100               	movlb	0	; () banked
  1958  000BF6  5186               	movf	??_APP_DeviceCustomHIDTasks& (0+255),w,b
  1959  000BF8  0100               	movlb	0	; () banked
  1960  000BFA  6F8B               	movwf	_APP_DeviceCustomHIDTasks$225& (0+255),b
  1961  000BFC  0100               	movlb	0	; () banked
  1962  000BFE  6B8C               	clrf	(_APP_DeviceCustomHIDTasks$225+1)& (0+255),b
  1963  000C00  D006               	goto	l3750
  1964  000C02                     l3748:
  1965                           
  1966                           ; BSR set to: 0
  1967  000C02  0E00               	movlw	0
  1968  000C04  0100               	movlb	0	; () banked
  1969  000C06  6F8C               	movwf	(_APP_DeviceCustomHIDTasks$225+1)& (0+255),b
  1970  000C08  0E00               	movlw	0
  1971  000C0A  0100               	movlb	0	; () banked
  1972  000C0C  6F8B               	movwf	_APP_DeviceCustomHIDTasks$225& (0+255),b
  1973  000C0E                     l3750:
  1974                           
  1975                           ; BSR set to: 0
  1976  000C0E  0100               	movlb	0	; () banked
  1977  000C10  518C               	movf	(_APP_DeviceCustomHIDTasks$225+1)& (0+255),w,b
  1978  000C12  118B               	iorwf	_APP_DeviceCustomHIDTasks$225& (0+255),w,b
  1979  000C14  A4D8               	btfss	status,2,c
  1980  000C16  D07F               	goto	l3784
  1981                           
  1982                           ; BSR set to: 0
  1983                           ;app_device_custom_hid.c: 123: {
  1984                           ;app_device_custom_hid.c: 124: ToSendDataBuffer[0] = 0x81;
  1985  000C18  0E81               	movlw	129
  1986  000C1A  0105               	movlb	5	; () banked
  1987  000C1C  6F40               	movwf	64,b
  1988                           
  1989                           ; BSR set to: 5
  1990                           ;app_device_custom_hid.c: 125: if(BUTTON_IsPressed(BUTTON_S2) == 0)
  1991  000C1E  0E01               	movlw	1
  1992  000C20  ECC2  F011         	call	_BUTTON_IsPressed
  1993  000C24  0900               	iorlw	0
  1994  000C26  A4D8               	btfss	status,2,c
  1995  000C28  D002               	goto	l3758
  1996                           
  1997                           ;app_device_custom_hid.c: 126: {
  1998                           ;app_device_custom_hid.c: 127: ToSendDataBuffer[1] = 0x01;
  1999  000C2A  0E01               	movlw	1
  2000  000C2C  D001               	goto	L3
  2001  000C2E                     l3758:
  2002                           
  2003                           ;app_device_custom_hid.c: 129: else
  2004                           ;app_device_custom_hid.c: 130: {
  2005                           ;app_device_custom_hid.c: 131: ToSendDataBuffer[1] = 0x00;
  2006  000C2E  0E00               	movlw	0
  2007  000C30                     L3:
  2008  000C30  0105               	movlb	5	; () banked
  2009  000C32  6F41               	movwf	65,b
  2010                           
  2011                           ; BSR set to: 5
  2012                           ;app_device_custom_hid.c: 132: }
  2013                           ;app_device_custom_hid.c: 134: USBInHandle = USBTransferOnePacket(1,1,(uint8_t*)&ToSendD
      +                          ataBuffer[0],64);
  2014                           
  2015                           ; BSR set to: 5
  2016  000C34  0E01               	movlw	1
  2017  000C36  0100               	movlb	0	; () banked
  2018  000C38  6F7F               	movwf	USBTransferOnePacket@dir& (0+255),b
  2019  000C3A  0105               	movlb	5	; () banked
  2020  000C3C  0E05               	movlw	5
  2021  000C3E  0100               	movlb	0	; () banked
  2022  000C40  6F81               	movwf	(USBTransferOnePacket@data+1)& (0+255),b
  2023  000C42  0105               	movlb	5	; () banked
  2024  000C44  0E40               	movlw	64
  2025  000C46  0100               	movlb	0	; () banked
  2026  000C48  6F80               	movwf	USBTransferOnePacket@data& (0+255),b
  2027  000C4A  0E40               	movlw	64
  2028  000C4C  0100               	movlb	0	; () banked
  2029  000C4E  6F82               	movwf	USBTransferOnePacket@len& (0+255),b
  2030  000C50  0E01               	movlw	1
  2031  000C52  EC55  F00A         	call	_USBTransferOnePacket
  2032  000C56  D04D               	goto	L4
  2033  000C58                     l3762:
  2034                           
  2035                           ;app_device_custom_hid.c: 139: {
  2036                           ;app_device_custom_hid.c: 140: uint16_t pot;
  2037                           ;app_device_custom_hid.c: 143: if(!(USBInHandle==0?0:((volatile BDT_ENTRY*)USBInHandle)-
      +                          >STAT.UOWN))
  2038  000C58  0100               	movlb	0	; () banked
  2039  000C5A  5171               	movf	(_USBInHandle+1)& (0+255),w,b
  2040  000C5C  1170               	iorwf	_USBInHandle& (0+255),w,b
  2041  000C5E  B4D8               	btfsc	status,2,c
  2042  000C60  D013               	goto	l3766
  2043                           
  2044                           ; BSR set to: 0
  2045  000C62  C070  FFD9         	movff	_USBInHandle,fsr2l
  2046  000C66  C071  FFDA         	movff	_USBInHandle+1,fsr2h
  2047  000C6A  AEDF               	btfss	indf2,7,c
  2048  000C6C  D004               	goto	u3000
  2049  000C6E  0100               	movlb	0	; () banked
  2050  000C70  6B86               	clrf	??_APP_DeviceCustomHIDTasks& (0+255),b
  2051  000C72  2B86               	incf	??_APP_DeviceCustomHIDTasks& (0+255),f,b
  2052  000C74  D002               	goto	u3008
  2053  000C76                     u3000:
  2054  000C76  0100               	movlb	0	; () banked
  2055  000C78  6B86               	clrf	??_APP_DeviceCustomHIDTasks& (0+255),b
  2056  000C7A                     u3008:
  2057  000C7A  0100               	movlb	0	; () banked
  2058  000C7C  5186               	movf	??_APP_DeviceCustomHIDTasks& (0+255),w,b
  2059  000C7E  0100               	movlb	0	; () banked
  2060  000C80  6F8D               	movwf	_APP_DeviceCustomHIDTasks$227& (0+255),b
  2061  000C82  0100               	movlb	0	; () banked
  2062  000C84  6B8E               	clrf	(_APP_DeviceCustomHIDTasks$227+1)& (0+255),b
  2063  000C86  D006               	goto	l3768
  2064  000C88                     l3766:
  2065                           
  2066                           ; BSR set to: 0
  2067  000C88  0E00               	movlw	0
  2068  000C8A  0100               	movlb	0	; () banked
  2069  000C8C  6F8E               	movwf	(_APP_DeviceCustomHIDTasks$227+1)& (0+255),b
  2070  000C8E  0E00               	movlw	0
  2071  000C90  0100               	movlb	0	; () banked
  2072  000C92  6F8D               	movwf	_APP_DeviceCustomHIDTasks$227& (0+255),b
  2073  000C94                     l3768:
  2074                           
  2075                           ; BSR set to: 0
  2076  000C94  0100               	movlb	0	; () banked
  2077  000C96  518E               	movf	(_APP_DeviceCustomHIDTasks$227+1)& (0+255),w,b
  2078  000C98  118D               	iorwf	_APP_DeviceCustomHIDTasks$227& (0+255),w,b
  2079  000C9A  A4D8               	btfss	status,2,c
  2080  000C9C  D03C               	goto	l3784
  2081                           
  2082                           ; BSR set to: 0
  2083                           ;app_device_custom_hid.c: 144: {
  2084                           ;app_device_custom_hid.c: 150: pot = ADC_Read10bit(ADC_CHANNEL_0);
  2085  000C9E  0E00               	movlw	0
  2086  000CA0  EC2D  F010         	call	_ADC_Read10bit
  2087  000CA4  0100               	movlb	0	; () banked
  2088  000CA6  C07F  F08F         	movff	?_ADC_Read10bit,APP_DeviceCustomHIDTasks@pot
  2089  000CAA  0100               	movlb	0	; () banked
  2090  000CAC  C080  F090         	movff	?_ADC_Read10bit+1,APP_DeviceCustomHIDTasks@pot+1
  2091                           
  2092                           ; BSR set to: 0
  2093                           ;app_device_custom_hid.c: 152: ToSendDataBuffer[0] = 0x37;
  2094  000CB0  0E37               	movlw	55
  2095  000CB2  0105               	movlb	5	; () banked
  2096  000CB4  6F40               	movwf	64,b
  2097                           
  2098                           ; BSR set to: 5
  2099                           ;app_device_custom_hid.c: 153: ToSendDataBuffer[1] = (uint8_t)pot;
  2100  000CB6  C08F  F541         	movff	APP_DeviceCustomHIDTasks@pot,1345
  2101                           
  2102                           ; BSR set to: 5
  2103                           ;app_device_custom_hid.c: 154: ToSendDataBuffer[2] = pot >> 8;
  2104  000CBA  0100               	movlb	0	; () banked
  2105  000CBC  C090  F086         	movff	APP_DeviceCustomHIDTasks@pot+1,??_APP_DeviceCustomHIDTasks
  2106  000CC0  C086  F087         	movff	??_APP_DeviceCustomHIDTasks,??_APP_DeviceCustomHIDTasks+1
  2107  000CC4  0100               	movlb	0	; () banked
  2108  000CC6  6B88               	clrf	(??_APP_DeviceCustomHIDTasks+2)& (0+255),b
  2109  000CC8  0100               	movlb	0	; () banked
  2110  000CCA  5187               	movf	(??_APP_DeviceCustomHIDTasks+1)& (0+255),w,b
  2111  000CCC  0105               	movlb	5	; () banked
  2112  000CCE  6F42               	movwf	66,b
  2113                           
  2114                           ; BSR set to: 5
  2115                           ;app_device_custom_hid.c: 158: USBInHandle = USBTransferOnePacket(1,1,(uint8_t*)&ToSendD
      +                          ataBuffer[0],64);
  2116  000CD0  0E01               	movlw	1
  2117  000CD2  0100               	movlb	0	; () banked
  2118  000CD4  6F7F               	movwf	USBTransferOnePacket@dir& (0+255),b
  2119  000CD6  0105               	movlb	5	; () banked
  2120  000CD8  0E05               	movlw	5
  2121  000CDA  0100               	movlb	0	; () banked
  2122  000CDC  6F81               	movwf	(USBTransferOnePacket@data+1)& (0+255),b
  2123  000CDE  0105               	movlb	5	; () banked
  2124  000CE0  0E40               	movlw	64
  2125  000CE2  0100               	movlb	0	; () banked
  2126  000CE4  6F80               	movwf	USBTransferOnePacket@data& (0+255),b
  2127  000CE6  0E40               	movlw	64
  2128  000CE8  0100               	movlb	0	; () banked
  2129  000CEA  6F82               	movwf	USBTransferOnePacket@len& (0+255),b
  2130  000CEC  0E01               	movlw	1
  2131  000CEE  EC55  F00A         	call	_USBTransferOnePacket
  2132  000CF2                     L4:
  2133  000CF2  0100               	movlb	0	; () banked
  2134  000CF4  C07F  F070         	movff	?_USBTransferOnePacket,_USBInHandle
  2135  000CF8  0100               	movlb	0	; () banked
  2136  000CFA  C080  F071         	movff	?_USBTransferOnePacket+1,_USBInHandle+1
  2137  000CFE  D00B               	goto	l3784
  2138  000D00                     l3782:
  2139                           
  2140                           ; BSR set to: 0
  2141  000D00  0105               	movlb	5	; () banked
  2142  000D02  5100               	movf	0,w,b
  2143                           
  2144                           ; Switch size 1, requested type "space"
  2145                           ; Number of cases is 3, Range of values is 55 to 129
  2146                           ; switch strategies available:
  2147                           ; Name         Instructions Cycles
  2148                           ; simple_byte           10     6 (average)
  2149                           ;	Chosen strategy is simple_byte
  2150  000D04  0A37               	xorlw	55	; case 55
  2151  000D06  B4D8               	btfsc	status,2,c
  2152  000D08  D7A7               	goto	l3762
  2153  000D0A  0AB7               	xorlw	183	; case 128
  2154  000D0C  B4D8               	btfsc	status,2,c
  2155  000D0E  D75D               	goto	l3742
  2156  000D10  0A01               	xorlw	1	; case 129
  2157  000D12  B4D8               	btfsc	status,2,c
  2158  000D14  D75E               	goto	l3744
  2159  000D16                     l3784:
  2160                           
  2161                           ;app_device_custom_hid.c: 165: USBOutHandle = USBTransferOnePacket(1,0,(uint8_t*)&Receiv
      +                          edDataBuffer,64);
  2162  000D16  0E00               	movlw	0
  2163  000D18  0100               	movlb	0	; () banked
  2164  000D1A  6F7F               	movwf	USBTransferOnePacket@dir& (0+255),b
  2165  000D1C  0105               	movlb	5	; () banked
  2166  000D1E  0E05               	movlw	5
  2167  000D20  0100               	movlb	0	; () banked
  2168  000D22  6F81               	movwf	(USBTransferOnePacket@data+1)& (0+255),b
  2169  000D24  0105               	movlb	5	; () banked
  2170  000D26  0E00               	movlw	0
  2171  000D28  0100               	movlb	0	; () banked
  2172  000D2A  6F80               	movwf	USBTransferOnePacket@data& (0+255),b
  2173  000D2C  0E40               	movlw	64
  2174  000D2E  0100               	movlb	0	; () banked
  2175  000D30  6F82               	movwf	USBTransferOnePacket@len& (0+255),b
  2176  000D32  0E01               	movlw	1
  2177  000D34  EC55  F00A         	call	_USBTransferOnePacket
  2178  000D38  0100               	movlb	0	; () banked
  2179  000D3A  C07F  F072         	movff	?_USBTransferOnePacket,_USBOutHandle
  2180  000D3E  0100               	movlb	0	; () banked
  2181  000D40  C080  F073         	movff	?_USBTransferOnePacket+1,_USBOutHandle+1
  2182  000D44                     l67:
  2183                           
  2184                           ; BSR set to: 0
  2185  000D44  0012               	return	
  2186  000D46                     __end_of_APP_DeviceCustomHIDTasks:
  2187                           	opt stack 0
  2188                           tblptru	equ	0xFF8
  2189                           prodh	equ	0xFF4
  2190                           prodl	equ	0xFF3
  2191                           intcon	equ	0xFF2
  2192                           postinc0	equ	0xFEE
  2193                           wreg	equ	0xFE8
  2194                           indf2	equ	0xFDF
  2195                           postinc2	equ	0xFDE
  2196                           postdec2	equ	0xFDD
  2197                           fsr2h	equ	0xFDA
  2198                           fsr2l	equ	0xFD9
  2199                           status	equ	0xFD8
  2200                           
  2201 ;; *************** function _USBTransferOnePacket *****************
  2202 ;; Defined at:
  2203 ;;		line 1014 in file "../src/usb_device.c"
  2204 ;; Parameters:    Size  Location     Type
  2205 ;;  ep              1    wreg     unsigned char 
  2206 ;;  dir             1    0[BANK0 ] unsigned char 
  2207 ;;  data            2    1[BANK0 ] PTR unsigned char 
  2208 ;;		 -> ToSendDataBuffer(64), ReceivedDataBuffer(64), 
  2209 ;;  len             1    3[BANK0 ] unsigned char 
  2210 ;; Auto vars:     Size  Location     Type
  2211 ;;  ep              1    4[BANK0 ] unsigned char 
  2212 ;;  handle          2    5[BANK0 ] PTR volatile struct __BD
  2213 ;;		 -> BDT(32), NULL(0), 
  2214 ;; Return value:  Size  Location     Type
  2215 ;;                  2    0[BANK0 ] PTR void 
  2216 ;; Registers used:
  2217 ;;		wreg, fsr2l, fsr2h, status,2, status,0, prodl, prodh
  2218 ;; Tracked objects:
  2219 ;;		On entry : 0/0
  2220 ;;		On exit  : 0/0
  2221 ;;		Unchanged: 0/0
  2222 ;; Data sizes:     COMRAM   BANK0   BANK1   BANK2   BANK3   BANK4   BANK5   BANK6   BANK7
  2223 ;;      Params:         0       4       0       0       0       0       0       0       0
  2224 ;;      Locals:         0       3       0       0       0       0       0       0       0
  2225 ;;      Temps:          0       0       0       0       0       0       0       0       0
  2226 ;;      Totals:         0       7       0       0       0       0       0       0       0
  2227 ;;Total ram usage:        7 bytes
  2228 ;; Hardware stack levels used:    1
  2229 ;; Hardware stack levels required when called:   10
  2230 ;; This function calls:
  2231 ;;		Nothing
  2232 ;; This function is called by:
  2233 ;;		_APP_DeviceCustomHIDTasks
  2234 ;; This function uses a non-reentrant model
  2235 ;;
  2236                           
  2237                           	psect	text10
  2238  0014AA                     __ptext10:
  2239                           	opt stack 0
  2240  0014AA                     _USBTransferOnePacket:
  2241                           	opt stack 19
  2242                           
  2243                           ; BSR set to: 0
  2244                           ;incstack = 0
  2245                           ;USBTransferOnePacket@ep stored from wreg
  2246  0014AA  0100               	movlb	0	; () banked
  2247  0014AC  6F83               	movwf	USBTransferOnePacket@ep& (0+255),b
  2248                           
  2249                           ; BSR set to: 0
  2250                           ;usb_device.c: 1016: volatile BDT_ENTRY* handle;
  2251                           ;usb_device.c: 1019: if(dir != 0)
  2252  0014AE  0100               	movlb	0	; () banked
  2253  0014B0  517F               	movf	USBTransferOnePacket@dir& (0+255),w,b
  2254  0014B2  B4D8               	btfsc	status,2,c
  2255  0014B4  D00A               	goto	l3382
  2256                           
  2257                           ; BSR set to: 0
  2258                           ;usb_device.c: 1020: {
  2259                           ;usb_device.c: 1022: handle = pBDTEntryIn[ep];
  2260  0014B6  0100               	movlb	0	; () banked
  2261  0014B8  5183               	movf	USBTransferOnePacket@ep& (0+255),w,b
  2262  0014BA  0D02               	mullw	2
  2263  0014BC  0100               	movlb	0	; () banked
  2264  0014BE  0E68               	movlw	low _pBDTEntryIn
  2265  0014C0  24F3               	addwf	prodl,w,c
  2266  0014C2  6ED9               	movwf	fsr2l,c
  2267  0014C4  0100               	movlb	0	; () banked
  2268  0014C6  0E00               	movlw	high _pBDTEntryIn
  2269  0014C8  D009               	goto	L5
  2270  0014CA                     l3382:
  2271                           
  2272                           ; BSR set to: 0
  2273                           ;usb_device.c: 1024: else
  2274                           ;usb_device.c: 1025: {
  2275                           ;usb_device.c: 1027: handle = pBDTEntryOut[ep];
  2276  0014CA  0100               	movlb	0	; () banked
  2277  0014CC  5183               	movf	USBTransferOnePacket@ep& (0+255),w,b
  2278  0014CE  0D02               	mullw	2
  2279  0014D0  0100               	movlb	0	; () banked
  2280  0014D2  0E6C               	movlw	low _pBDTEntryOut
  2281  0014D4  24F3               	addwf	prodl,w,c
  2282  0014D6  6ED9               	movwf	fsr2l,c
  2283  0014D8  0100               	movlb	0	; () banked
  2284  0014DA  0E00               	movlw	high _pBDTEntryOut
  2285  0014DC                     L5:
  2286  0014DC  20F4               	addwfc	prodh,w,c
  2287  0014DE  6EDA               	movwf	fsr2h,c
  2288  0014E0  0100               	movlb	0	; () banked
  2289  0014E2  CFDE F084          	movff	postinc2,USBTransferOnePacket@handle
  2290  0014E6  0100               	movlb	0	; () banked
  2291  0014E8  CFDD F085          	movff	postdec2,USBTransferOnePacket@handle+1
  2292                           
  2293                           ; BSR set to: 0
  2294                           ;usb_device.c: 1028: }
  2295                           ;usb_device.c: 1032: if(handle == 0)
  2296                           
  2297                           ; BSR set to: 0
  2298  0014EC  0100               	movlb	0	; () banked
  2299  0014EE  5185               	movf	(USBTransferOnePacket@handle+1)& (0+255),w,b
  2300  0014F0  1184               	iorwf	USBTransferOnePacket@handle& (0+255),w,b
  2301  0014F2  A4D8               	btfss	status,2,c
  2302  0014F4  D007               	goto	l3390
  2303                           
  2304                           ; BSR set to: 0
  2305                           ;usb_device.c: 1033: {
  2306                           ;usb_device.c: 1034: return 0;
  2307  0014F6  0E00               	movlw	0
  2308  0014F8  0100               	movlb	0	; () banked
  2309  0014FA  6F80               	movwf	(?_USBTransferOnePacket+1)& (0+255),b
  2310  0014FC  0E00               	movlw	0
  2311  0014FE  0100               	movlb	0	; () banked
  2312  001500  6F7F               	movwf	?_USBTransferOnePacket& (0+255),b
  2313  001502  D04E               	goto	l452
  2314  001504                     l3390:
  2315                           
  2316                           ; BSR set to: 0
  2317                           ;usb_device.c: 1035: }
  2318                           ;usb_device.c: 1048: handle->ADR = ((uint16_t)(data));
  2319  001504  0100               	movlb	0	; () banked
  2320  001506  EE20 F002          	lfsr	2,2
  2321  00150A  0100               	movlb	0	; () banked
  2322  00150C  5184               	movf	USBTransferOnePacket@handle& (0+255),w,b
  2323  00150E  26D9               	addwf	fsr2l,f,c
  2324  001510  0100               	movlb	0	; () banked
  2325  001512  5185               	movf	(USBTransferOnePacket@handle+1)& (0+255),w,b
  2326  001514  22DA               	addwfc	fsr2h,f,c
  2327  001516  0100               	movlb	0	; () banked
  2328  001518  C080  FFDE         	movff	USBTransferOnePacket@data,postinc2
  2329  00151C  0100               	movlb	0	; () banked
  2330  00151E  C081  FFDD         	movff	USBTransferOnePacket@data+1,postdec2
  2331                           
  2332                           ;usb_device.c: 1049: handle->CNT = len;
  2333  001522  0100               	movlb	0	; () banked
  2334  001524  EE20 F001          	lfsr	2,1
  2335  001528  0100               	movlb	0	; () banked
  2336  00152A  5184               	movf	USBTransferOnePacket@handle& (0+255),w,b
  2337  00152C  26D9               	addwf	fsr2l,f,c
  2338  00152E  0100               	movlb	0	; () banked
  2339  001530  5185               	movf	(USBTransferOnePacket@handle+1)& (0+255),w,b
  2340  001532  22DA               	addwfc	fsr2h,f,c
  2341  001534  0100               	movlb	0	; () banked
  2342  001536  C082  FFDF         	movff	USBTransferOnePacket@len,indf2
  2343                           
  2344                           ; BSR set to: 0
  2345                           ;usb_device.c: 1050: handle->STAT.Val &= 0x40;
  2346  00153A  C084  FFD9         	movff	USBTransferOnePacket@handle,fsr2l
  2347  00153E  C085  FFDA         	movff	USBTransferOnePacket@handle+1,fsr2h
  2348  001542  0E40               	movlw	64
  2349  001544  16DF               	andwf	indf2,f,c
  2350                           
  2351                           ; BSR set to: 0
  2352                           ;usb_device.c: 1051: handle->STAT.Val |= (0x08 & 0x08);
  2353  001546  C084  FFD9         	movff	USBTransferOnePacket@handle,fsr2l
  2354  00154A  C085  FFDA         	movff	USBTransferOnePacket@handle+1,fsr2h
  2355  00154E  0E00               	movlw	0
  2356  001550  86DB               	bsf	plusw2,3,c
  2357                           
  2358                           ; BSR set to: 0
  2359                           ;usb_device.c: 1052: handle->STAT.Val |= 0x80;
  2360  001552  C084  FFD9         	movff	USBTransferOnePacket@handle,fsr2l
  2361  001556  C085  FFDA         	movff	USBTransferOnePacket@handle+1,fsr2h
  2362  00155A  0E00               	movlw	0
  2363  00155C  8EDB               	bsf	plusw2,7,c
  2364                           
  2365                           ; BSR set to: 0
  2366                           ;usb_device.c: 1055: if(dir != 0)
  2367  00155E  0100               	movlb	0	; () banked
  2368  001560  517F               	movf	USBTransferOnePacket@dir& (0+255),w,b
  2369  001562  B4D8               	btfsc	status,2,c
  2370  001564  D00A               	goto	l3402
  2371                           
  2372                           ; BSR set to: 0
  2373                           ;usb_device.c: 1056: {
  2374                           ;usb_device.c: 1058: {((uint8_t_VAL*)&pBDTEntryIn[ep])->Val ^= 0x0004;};
  2375  001566  0100               	movlb	0	; () banked
  2376  001568  5183               	movf	USBTransferOnePacket@ep& (0+255),w,b
  2377  00156A  0D02               	mullw	2
  2378  00156C  0100               	movlb	0	; () banked
  2379  00156E  0E68               	movlw	low _pBDTEntryIn
  2380  001570  24F3               	addwf	prodl,w,c
  2381  001572  6ED9               	movwf	fsr2l,c
  2382  001574  0100               	movlb	0	; () banked
  2383  001576  0E00               	movlw	high _pBDTEntryIn
  2384  001578  D009               	goto	L6
  2385  00157A                     l3402:
  2386                           
  2387                           ; BSR set to: 0
  2388                           ;usb_device.c: 1060: else
  2389                           ;usb_device.c: 1061: {
  2390                           ;usb_device.c: 1063: {((uint8_t_VAL*)&pBDTEntryOut[ep])->Val ^= 0x0004;};
  2391  00157A  0100               	movlb	0	; () banked
  2392  00157C  5183               	movf	USBTransferOnePacket@ep& (0+255),w,b
  2393  00157E  0D02               	mullw	2
  2394  001580  0100               	movlb	0	; () banked
  2395  001582  0E6C               	movlw	low _pBDTEntryOut
  2396  001584  24F3               	addwf	prodl,w,c
  2397  001586  6ED9               	movwf	fsr2l,c
  2398  001588  0100               	movlb	0	; () banked
  2399  00158A  0E00               	movlw	high _pBDTEntryOut
  2400  00158C                     L6:
  2401  00158C  20F4               	addwfc	prodh,w,c
  2402  00158E  6EDA               	movwf	fsr2h,c
  2403  001590  0E04               	movlw	4
  2404  001592  1ADF               	xorwf	indf2,f,c
  2405                           
  2406                           ; BSR set to: 0
  2407                           ;usb_device.c: 1064: }
  2408                           ;usb_device.c: 1065: return (void*)handle;
  2409                           
  2410                           ; BSR set to: 0
  2411  001594  0100               	movlb	0	; () banked
  2412  001596  C085  F080         	movff	USBTransferOnePacket@handle+1,?_USBTransferOnePacket+1
  2413  00159A  0100               	movlb	0	; () banked
  2414  00159C  C084  F07F         	movff	USBTransferOnePacket@handle,?_USBTransferOnePacket
  2415  0015A0                     l452:
  2416                           
  2417                           ; BSR set to: 0
  2418  0015A0  0012               	return	
  2419  0015A2                     __end_of_USBTransferOnePacket:
  2420                           	opt stack 0
  2421                           tblptru	equ	0xFF8
  2422                           prodh	equ	0xFF4
  2423                           prodl	equ	0xFF3
  2424                           intcon	equ	0xFF2
  2425                           postinc0	equ	0xFEE
  2426                           wreg	equ	0xFE8
  2427                           indf2	equ	0xFDF
  2428                           postinc2	equ	0xFDE
  2429                           postdec2	equ	0xFDD
  2430                           plusw2	equ	0xFDB
  2431                           fsr2h	equ	0xFDA
  2432                           fsr2l	equ	0xFD9
  2433                           status	equ	0xFD8
  2434                           
  2435 ;; *************** function _LED_Toggle *****************
  2436 ;; Defined at:
  2437 ;;		line 178 in file "../../deviceDefinitions/leds.c"
  2438 ;; Parameters:    Size  Location     Type
  2439 ;;  led             1    wreg     enum E2
  2440 ;; Auto vars:     Size  Location     Type
  2441 ;;  led             1    0[BANK0 ] enum E2
  2442 ;; Return value:  Size  Location     Type
  2443 ;;		None               void
  2444 ;; Registers used:
  2445 ;;		wreg, status,2, status,0
  2446 ;; Tracked objects:
  2447 ;;		On entry : 0/0
  2448 ;;		On exit  : 0/0
  2449 ;;		Unchanged: 0/0
  2450 ;; Data sizes:     COMRAM   BANK0   BANK1   BANK2   BANK3   BANK4   BANK5   BANK6   BANK7
  2451 ;;      Params:         0       0       0       0       0       0       0       0       0
  2452 ;;      Locals:         0       1       0       0       0       0       0       0       0
  2453 ;;      Temps:          0       0       0       0       0       0       0       0       0
  2454 ;;      Totals:         0       1       0       0       0       0       0       0       0
  2455 ;;Total ram usage:        1 bytes
  2456 ;; Hardware stack levels used:    1
  2457 ;; Hardware stack levels required when called:   10
  2458 ;; This function calls:
  2459 ;;		Nothing
  2460 ;; This function is called by:
  2461 ;;		_APP_DeviceCustomHIDTasks
  2462 ;; This function uses a non-reentrant model
  2463 ;;
  2464                           
  2465                           	psect	text11
  2466  0021D0                     __ptext11:
  2467                           	opt stack 0
  2468  0021D0                     _LED_Toggle:
  2469                           	opt stack 19
  2470                           
  2471                           ; BSR set to: 0
  2472                           ;incstack = 0
  2473                           ;LED_Toggle@led stored from wreg
  2474  0021D0  0100               	movlb	0	; () banked
  2475  0021D2  6F7F               	movwf	LED_Toggle@led& (0+255),b
  2476                           
  2477                           ; BSR set to: 0
  2478                           ;leds.c: 180: switch(led)
  2479  0021D4  D008               	goto	l3412
  2480  0021D6                     l247:
  2481                           
  2482                           ; BSR set to: 0
  2483                           ;leds.c: 183: LATDbits.LATD0 ^= 1;
  2484  0021D6  708C               	btg	3980,0,c	;volatile
  2485                           
  2486                           ;leds.c: 184: break;
  2487  0021D8  D017               	goto	l253
  2488  0021DA                     l249:
  2489                           
  2490                           ; BSR set to: 0
  2491                           ;leds.c: 187: LATDbits.LATD1 ^= 1;
  2492  0021DA  728C               	btg	3980,1,c	;volatile
  2493                           
  2494                           ;leds.c: 188: break;
  2495  0021DC  D015               	goto	l253
  2496  0021DE                     l250:
  2497                           
  2498                           ; BSR set to: 0
  2499                           ;leds.c: 191: LATDbits.LATD2 ^= 1;
  2500  0021DE  748C               	btg	3980,2,c	;volatile
  2501                           
  2502                           ;leds.c: 192: break;
  2503  0021E0  D013               	goto	l253
  2504  0021E2                     l251:
  2505                           
  2506                           ; BSR set to: 0
  2507                           ;leds.c: 195: LATDbits.LATD3 ^= 1;
  2508  0021E2  768C               	btg	3980,3,c	;volatile
  2509                           
  2510                           ;leds.c: 196: break;
  2511  0021E4  D011               	goto	l253
  2512  0021E6                     l3412:
  2513                           
  2514                           ; BSR set to: 0
  2515  0021E6  0100               	movlb	0	; () banked
  2516  0021E8  517F               	movf	LED_Toggle@led& (0+255),w,b
  2517                           
  2518                           ; Switch size 1, requested type "space"
  2519                           ; Number of cases is 5, Range of values is 0 to 4
  2520                           ; switch strategies available:
  2521                           ; Name         Instructions Cycles
  2522                           ; simple_byte           16     9 (average)
  2523                           ;	Chosen strategy is simple_byte
  2524  0021EA  0A00               	xorlw	0	; case 0
  2525  0021EC  B4D8               	btfsc	status,2,c
  2526  0021EE  D00C               	goto	l253
  2527  0021F0  0A01               	xorlw	1	; case 1
  2528  0021F2  B4D8               	btfsc	status,2,c
  2529  0021F4  D7F0               	goto	l247
  2530  0021F6  0A03               	xorlw	3	; case 2
  2531  0021F8  B4D8               	btfsc	status,2,c
  2532  0021FA  D7EF               	goto	l249
  2533  0021FC  0A01               	xorlw	1	; case 3
  2534  0021FE  B4D8               	btfsc	status,2,c
  2535  002200  D7EE               	goto	l250
  2536  002202  0A07               	xorlw	7	; case 4
  2537  002204  B4D8               	btfsc	status,2,c
  2538  002206  D7ED               	goto	l251
  2539  002208                     l253:
  2540                           
  2541                           ; BSR set to: 0
  2542  002208  0012               	return	
  2543  00220A                     __end_of_LED_Toggle:
  2544                           	opt stack 0
  2545                           tblptru	equ	0xFF8
  2546                           prodh	equ	0xFF4
  2547                           prodl	equ	0xFF3
  2548                           intcon	equ	0xFF2
  2549                           postinc0	equ	0xFEE
  2550                           wreg	equ	0xFE8
  2551                           indf2	equ	0xFDF
  2552                           postinc2	equ	0xFDE
  2553                           postdec2	equ	0xFDD
  2554                           plusw2	equ	0xFDB
  2555                           fsr2h	equ	0xFDA
  2556                           fsr2l	equ	0xFD9
  2557                           status	equ	0xFD8
  2558                           
  2559 ;; *************** function _BUTTON_IsPressed *****************
  2560 ;; Defined at:
  2561 ;;		line 95 in file "../../deviceDefinitions/buttons.c"
  2562 ;; Parameters:    Size  Location     Type
  2563 ;;  button          1    wreg     enum E5280
  2564 ;; Auto vars:     Size  Location     Type
  2565 ;;  button          1    0[BANK0 ] enum E5280
  2566 ;; Return value:  Size  Location     Type
  2567 ;;                  1    wreg      unsigned char 
  2568 ;; Registers used:
  2569 ;;		wreg, status,2, status,0
  2570 ;; Tracked objects:
  2571 ;;		On entry : 0/0
  2572 ;;		On exit  : 0/0
  2573 ;;		Unchanged: 0/0
  2574 ;; Data sizes:     COMRAM   BANK0   BANK1   BANK2   BANK3   BANK4   BANK5   BANK6   BANK7
  2575 ;;      Params:         0       0       0       0       0       0       0       0       0
  2576 ;;      Locals:         0       1       0       0       0       0       0       0       0
  2577 ;;      Temps:          0       0       0       0       0       0       0       0       0
  2578 ;;      Totals:         0       1       0       0       0       0       0       0       0
  2579 ;;Total ram usage:        1 bytes
  2580 ;; Hardware stack levels used:    1
  2581 ;; Hardware stack levels required when called:   10
  2582 ;; This function calls:
  2583 ;;		Nothing
  2584 ;; This function is called by:
  2585 ;;		_APP_DeviceCustomHIDTasks
  2586 ;; This function uses a non-reentrant model
  2587 ;;
  2588                           
  2589                           	psect	text12
  2590  002384                     __ptext12:
  2591                           	opt stack 0
  2592  002384                     _BUTTON_IsPressed:
  2593                           	opt stack 19
  2594                           
  2595                           ; BSR set to: 0
  2596                           ;incstack = 0
  2597                           ;BUTTON_IsPressed@button stored from wreg
  2598  002384  0100               	movlb	0	; () banked
  2599  002386  6F7F               	movwf	BUTTON_IsPressed@button& (0+255),b
  2600                           
  2601                           ; BSR set to: 0
  2602                           ;buttons.c: 97: switch(button)
  2603  002388  D007               	goto	l3430
  2604  00238A                     l3416:
  2605                           
  2606                           ; BSR set to: 0
  2607                           ;buttons.c: 100: return ( (PORTBbits.RB4 == 0) ? 1 : 0);
  2608  00238A  B881               	btfsc	3969,4,c	;volatile
  2609  00238C  D010               	goto	l3432
  2610  00238E  0E01               	movlw	1
  2611  002390  D00F               	goto	l208
  2612  002392                     l3420:
  2613                           
  2614                           ; BSR set to: 0
  2615                           ;buttons.c: 103: return ( (PORTBbits.RB5 == 0) ? 1 : 0);
  2616  002392  BA81               	btfsc	3969,5,c	;volatile
  2617  002394  D00C               	goto	l3432
  2618  002396  D7FB               	goto	L7
  2619  002398                     l3430:
  2620                           
  2621                           ; BSR set to: 0
  2622  002398  0100               	movlb	0	; () banked
  2623  00239A  517F               	movf	BUTTON_IsPressed@button& (0+255),w,b
  2624                           
  2625                           ; Switch size 1, requested type "space"
  2626                           ; Number of cases is 3, Range of values is 0 to 2
  2627                           ; switch strategies available:
  2628                           ; Name         Instructions Cycles
  2629                           ; simple_byte           10     6 (average)
  2630                           ;	Chosen strategy is simple_byte
  2631  00239C  0A00               	xorlw	0	; case 0
  2632  00239E  B4D8               	btfsc	status,2,c
  2633  0023A0  D006               	goto	l3432
  2634  0023A2  0A01               	xorlw	1	; case 1
  2635  0023A4  B4D8               	btfsc	status,2,c
  2636  0023A6  D7F1               	goto	l3416
  2637  0023A8  0A03               	xorlw	3	; case 2
  2638  0023AA  B4D8               	btfsc	status,2,c
  2639  0023AC  D7F2               	goto	l3420
  2640  0023AE                     l3432:
  2641                           
  2642                           ; BSR set to: 0
  2643                           ;buttons.c: 109: return 0;
  2644  0023AE  0E00               	movlw	0
  2645  0023B0                     l208:
  2646                           
  2647                           ; BSR set to: 0
  2648  0023B0  0012               	return	
  2649  0023B2                     __end_of_BUTTON_IsPressed:
  2650                           	opt stack 0
  2651                           tblptru	equ	0xFF8
  2652                           prodh	equ	0xFF4
  2653                           prodl	equ	0xFF3
  2654                           intcon	equ	0xFF2
  2655                           postinc0	equ	0xFEE
  2656                           wreg	equ	0xFE8
  2657                           indf2	equ	0xFDF
  2658                           postinc2	equ	0xFDE
  2659                           postdec2	equ	0xFDD
  2660                           plusw2	equ	0xFDB
  2661                           fsr2h	equ	0xFDA
  2662                           fsr2l	equ	0xFD9
  2663                           status	equ	0xFD8
  2664                           
  2665 ;; *************** function _ADC_Read10bit *****************
  2666 ;; Defined at:
  2667 ;;		line 115 in file "../../deviceDefinitions/adc.c"
  2668 ;; Parameters:    Size  Location     Type
  2669 ;;  channel         1    wreg     enum E30
  2670 ;; Auto vars:     Size  Location     Type
  2671 ;;  channel         1    5[BANK0 ] enum E30
  2672 ;;  result          2    3[BANK0 ] unsigned int 
  2673 ;; Return value:  Size  Location     Type
  2674 ;;                  2    0[BANK0 ] unsigned int 
  2675 ;; Registers used:
  2676 ;;		wreg, status,2, status,0
  2677 ;; Tracked objects:
  2678 ;;		On entry : 0/0
  2679 ;;		On exit  : 0/0
  2680 ;;		Unchanged: 0/0
  2681 ;; Data sizes:     COMRAM   BANK0   BANK1   BANK2   BANK3   BANK4   BANK5   BANK6   BANK7
  2682 ;;      Params:         0       2       0       0       0       0       0       0       0
  2683 ;;      Locals:         0       3       0       0       0       0       0       0       0
  2684 ;;      Temps:          0       1       0       0       0       0       0       0       0
  2685 ;;      Totals:         0       6       0       0       0       0       0       0       0
  2686 ;;Total ram usage:        6 bytes
  2687 ;; Hardware stack levels used:    1
  2688 ;; Hardware stack levels required when called:   10
  2689 ;; This function calls:
  2690 ;;		Nothing
  2691 ;; This function is called by:
  2692 ;;		_APP_DeviceCustomHIDTasks
  2693 ;;		_ADC_ReadPercentage
  2694 ;; This function uses a non-reentrant model
  2695 ;;
  2696                           
  2697                           	psect	text13
  2698  00205A                     __ptext13:
  2699                           	opt stack 0
  2700  00205A                     _ADC_Read10bit:
  2701                           	opt stack 19
  2702                           
  2703                           ; BSR set to: 0
  2704                           ;incstack = 0
  2705                           ;ADC_Read10bit@channel stored from wreg
  2706  00205A  0100               	movlb	0	; () banked
  2707  00205C  6F84               	movwf	ADC_Read10bit@channel& (0+255),b
  2708                           
  2709                           ; BSR set to: 0
  2710                           ;adc.c: 117: uint16_t result;
  2711                           ;adc.c: 119: switch(channel)
  2712  00205E  D005               	goto	l3440
  2713  002060                     l184:
  2714                           
  2715                           ; BSR set to: 0
  2716                           ;adc.c: 124: return 0xFFFF;
  2717  002060  0100               	movlb	0	; () banked
  2718  002062  697F               	setf	?_ADC_Read10bit& (0+255),b
  2719  002064  0100               	movlb	0	; () banked
  2720  002066  6980               	setf	(?_ADC_Read10bit+1)& (0+255),b
  2721  002068  D025               	goto	l185
  2722  00206A                     l3440:
  2723                           
  2724                           ; BSR set to: 0
  2725  00206A  0100               	movlb	0	; () banked
  2726  00206C  5184               	movf	ADC_Read10bit@channel& (0+255),w,b
  2727                           
  2728                           ; Switch size 1, requested type "space"
  2729                           ; Number of cases is 1, Range of values is 0 to 0
  2730                           ; switch strategies available:
  2731                           ; Name         Instructions Cycles
  2732                           ; simple_byte            4     3 (average)
  2733                           ;	Chosen strategy is simple_byte
  2734  00206E  0A00               	xorlw	0	; case 0
  2735  002070  A4D8               	btfss	status,2,c
  2736  002072  D7F6               	goto	l184
  2737                           
  2738                           ; BSR set to: 0
  2739                           ;adc.c: 127: ADCON0bits.CHS = channel;
  2740                           
  2741                           ; BSR set to: 0
  2742  002074  C084  F081         	movff	ADC_Read10bit@channel,??_ADC_Read10bit
  2743  002078  0100               	movlb	0	; () banked
  2744  00207A  4781               	rlncf	??_ADC_Read10bit& (0+255),f,b
  2745  00207C  4781               	rlncf	??_ADC_Read10bit& (0+255),f,b
  2746  00207E  50C2               	movf	4034,w,c	;volatile
  2747  002080  0100               	movlb	0	; () banked
  2748  002082  1981               	xorwf	??_ADC_Read10bit& (0+255),w,b
  2749  002084  0BC3               	andlw	-61
  2750  002086  1981               	xorwf	??_ADC_Read10bit& (0+255),w,b
  2751  002088  6EC2               	movwf	4034,c	;volatile
  2752                           
  2753                           ; BSR set to: 0
  2754                           ;adc.c: 129: ADCON0bits.GO = 1;
  2755  00208A  82C2               	bsf	4034,1,c	;volatile
  2756  00208C                     l186:
  2757                           
  2758                           ; BSR set to: 0
  2759  00208C  B2C2               	btfsc	4034,1,c	;volatile
  2760  00208E  D7FE               	goto	l186
  2761                           
  2762                           ; BSR set to: 0
  2763                           ;adc.c: 132: result = ADRESH;
  2764  002090  0100               	movlb	0	; () banked
  2765  002092  CFC4 F082          	movff	4036,ADC_Read10bit@result	;volatile
  2766  002096  0100               	movlb	0	; () banked
  2767  002098  6B83               	clrf	(ADC_Read10bit@result+1)& (0+255),b
  2768                           
  2769                           ; BSR set to: 0
  2770                           ;adc.c: 133: result <<=8;
  2771  00209A  0100               	movlb	0	; () banked
  2772  00209C  5182               	movf	ADC_Read10bit@result& (0+255),w,b
  2773  00209E  0100               	movlb	0	; () banked
  2774  0020A0  6F83               	movwf	(ADC_Read10bit@result+1)& (0+255),b
  2775  0020A2  0100               	movlb	0	; () banked
  2776  0020A4  6B82               	clrf	ADC_Read10bit@result& (0+255),b
  2777                           
  2778                           ; BSR set to: 0
  2779                           ;adc.c: 134: result |= ADRESL;
  2780  0020A6  50C3               	movf	4035,w,c	;volatile
  2781  0020A8  0100               	movlb	0	; () banked
  2782  0020AA  1382               	iorwf	ADC_Read10bit@result& (0+255),f,b
  2783                           
  2784                           ; BSR set to: 0
  2785                           ;adc.c: 136: return result;
  2786  0020AC  C082  F07F         	movff	ADC_Read10bit@result,?_ADC_Read10bit
  2787  0020B0  C083  F080         	movff	ADC_Read10bit@result+1,?_ADC_Read10bit+1
  2788  0020B4                     l185:
  2789                           
  2790                           ; BSR set to: 0
  2791  0020B4  0012               	return	
  2792  0020B6                     __end_of_ADC_Read10bit:
  2793                           	opt stack 0
  2794                           tblptru	equ	0xFF8
  2795                           prodh	equ	0xFF4
  2796                           prodl	equ	0xFF3
  2797                           intcon	equ	0xFF2
  2798                           postinc0	equ	0xFEE
  2799                           wreg	equ	0xFE8
  2800                           indf2	equ	0xFDF
  2801                           postinc2	equ	0xFDE
  2802                           postdec2	equ	0xFDD
  2803                           plusw2	equ	0xFDB
  2804                           fsr2h	equ	0xFDA
  2805                           fsr2l	equ	0xFD9
  2806                           status	equ	0xFD8
  2807                           
  2808 ;; *************** function _SYS_InterruptHigh *****************
  2809 ;; Defined at:
  2810 ;;		line 109 in file "../src/system_config/picdem_fs_usb/system.c"
  2811 ;; Parameters:    Size  Location     Type
  2812 ;;		None
  2813 ;; Auto vars:     Size  Location     Type
  2814 ;;		None
  2815 ;; Return value:  Size  Location     Type
  2816 ;;		None               void
  2817 ;; Registers used:
  2818 ;;		wreg, fsr0l, fsr0h, fsr1l, fsr1h, fsr2l, fsr2h, status,2, status,0, tblptrl, tblptrh, tblptru, prodl, prodh, cstack
  2819 ;; Tracked objects:
  2820 ;;		On entry : 0/0
  2821 ;;		On exit  : 0/0
  2822 ;;		Unchanged: 0/0
  2823 ;; Data sizes:     COMRAM   BANK0   BANK1   BANK2   BANK3   BANK4   BANK5   BANK6   BANK7
  2824 ;;      Params:         0       0       0       0       0       0       0       0       0
  2825 ;;      Locals:         0       0       0       0       0       0       0       0       0
  2826 ;;      Temps:         14       0       0       0       0       0       0       0       0
  2827 ;;      Totals:        14       0       0       0       0       0       0       0       0
  2828 ;;Total ram usage:       14 bytes
  2829 ;; Hardware stack levels used:    1
  2830 ;; Hardware stack levels required when called:    9
  2831 ;; This function calls:
  2832 ;;		_USBDeviceTasks
  2833 ;; This function is called by:
  2834 ;;		Interrupt level 2
  2835 ;; This function uses a non-reentrant model
  2836 ;;
  2837                           
  2838                           	psect	intcode
  2839  000008                     __pintcode:
  2840                           	opt stack 0
  2841  000008                     _SYS_InterruptHigh:
  2842                           	opt stack 19
  2843                           
  2844                           ; BSR set to: 0
  2845                           ;incstack = 0
  2846  000008  CFFA F025          	movff	pclath,??_SYS_InterruptHigh
  2847  00000C  CFFB F026          	movff	pclatu,??_SYS_InterruptHigh+1
  2848  000010  CFE9 F027          	movff	fsr0l,??_SYS_InterruptHigh+2
  2849  000014  EDF7  F00F         	call	int_func,f	;refresh shadow registers
  2850                           pclatu	equ	0xFFB
  2851                           pclath	equ	0xFFA
  2852                           tblptru	equ	0xFF8
  2853                           prodh	equ	0xFF4
  2854                           prodl	equ	0xFF3
  2855                           intcon	equ	0xFF2
  2856                           postinc0	equ	0xFEE
  2857                           fsr0l	equ	0xFE9
  2858                           wreg	equ	0xFE8
  2859                           indf2	equ	0xFDF
  2860                           postinc2	equ	0xFDE
  2861                           postdec2	equ	0xFDD
  2862                           plusw2	equ	0xFDB
  2863                           fsr2h	equ	0xFDA
  2864                           fsr2l	equ	0xFD9
  2865                           status	equ	0xFD8
  2866                           
  2867                           	psect	intcode_body
  2868  001FEE                     __pintcode_body:
  2869                           	opt stack 19
  2870  001FEE                     int_func:
  2871                           	opt stack 19
  2872  001FEE  0006               	pop		; remove dummy address from shadow register refresh
  2873  001FF0  CFEA F028          	movff	fsr0h,??_SYS_InterruptHigh+3
  2874  001FF4  CFE1 F029          	movff	fsr1l,??_SYS_InterruptHigh+4
  2875  001FF8  CFE2 F02A          	movff	fsr1h,??_SYS_InterruptHigh+5
  2876  001FFC  CFD9 F02B          	movff	fsr2l,??_SYS_InterruptHigh+6
  2877  002000  CFDA F02C          	movff	fsr2h,??_SYS_InterruptHigh+7
  2878  002004  CFF3 F02D          	movff	prodl,??_SYS_InterruptHigh+8
  2879  002008  CFF4 F02E          	movff	prodh,??_SYS_InterruptHigh+9
  2880  00200C  CFF6 F02F          	movff	tblptrl,??_SYS_InterruptHigh+10
  2881  002010  CFF7 F030          	movff	tblptrh,??_SYS_InterruptHigh+11
  2882  002014  CFF8 F031          	movff	tblptru,??_SYS_InterruptHigh+12
  2883  002018  CFF5 F032          	movff	tablat,??_SYS_InterruptHigh+13
  2884                           
  2885                           ;system.c: 112: USBDeviceTasks();
  2886  00201C  ECB5  F008         	call	_USBDeviceTasks	;wreg free
  2887  002020  C032  FFF5         	movff	??_SYS_InterruptHigh+13,tablat
  2888  002024  C031  FFF8         	movff	??_SYS_InterruptHigh+12,tblptru
  2889  002028  C030  FFF7         	movff	??_SYS_InterruptHigh+11,tblptrh
  2890  00202C  C02F  FFF6         	movff	??_SYS_InterruptHigh+10,tblptrl
  2891  002030  C02E  FFF4         	movff	??_SYS_InterruptHigh+9,prodh
  2892  002034  C02D  FFF3         	movff	??_SYS_InterruptHigh+8,prodl
  2893  002038  C02C  FFDA         	movff	??_SYS_InterruptHigh+7,fsr2h
  2894  00203C  C02B  FFD9         	movff	??_SYS_InterruptHigh+6,fsr2l
  2895  002040  C02A  FFE2         	movff	??_SYS_InterruptHigh+5,fsr1h
  2896  002044  C029  FFE1         	movff	??_SYS_InterruptHigh+4,fsr1l
  2897  002048  C028  FFEA         	movff	??_SYS_InterruptHigh+3,fsr0h
  2898  00204C  C027  FFE9         	movff	??_SYS_InterruptHigh+2,fsr0l
  2899  002050  C026  FFFB         	movff	??_SYS_InterruptHigh+1,pclatu
  2900  002054  C025  FFFA         	movff	??_SYS_InterruptHigh,pclath
  2901  002058  0011               	retfie		f
  2902  00205A                     __end_of_SYS_InterruptHigh:
  2903                           	opt stack 0
  2904                           pclatu	equ	0xFFB
  2905                           pclath	equ	0xFFA
  2906                           tblptru	equ	0xFF8
  2907                           tblptrh	equ	0xFF7
  2908                           tblptrl	equ	0xFF6
  2909                           tablat	equ	0xFF5
  2910                           prodh	equ	0xFF4
  2911                           prodl	equ	0xFF3
  2912                           intcon	equ	0xFF2
  2913                           postinc0	equ	0xFEE
  2914                           fsr0h	equ	0xFEA
  2915                           fsr0l	equ	0xFE9
  2916                           wreg	equ	0xFE8
  2917                           fsr1h	equ	0xFE2
  2918                           fsr1l	equ	0xFE1
  2919                           indf2	equ	0xFDF
  2920                           postinc2	equ	0xFDE
  2921                           postdec2	equ	0xFDD
  2922                           plusw2	equ	0xFDB
  2923                           fsr2h	equ	0xFDA
  2924                           fsr2l	equ	0xFD9
  2925                           status	equ	0xFD8
  2926                           
  2927 ;; *************** function _USBDeviceTasks *****************
  2928 ;; Defined at:
  2929 ;;		line 496 in file "../src/usb_device.c"
  2930 ;; Parameters:    Size  Location     Type
  2931 ;;		None
  2932 ;; Auto vars:     Size  Location     Type
  2933 ;;  i               1   35[COMRAM] unsigned char 
  2934 ;; Return value:  Size  Location     Type
  2935 ;;		None               void
  2936 ;; Registers used:
  2937 ;;		wreg, fsr0l, fsr0h, fsr1l, fsr1h, fsr2l, fsr2h, status,2, status,0, tblptrl, tblptrh, tblptru, prodl, prodh, cstack
  2938 ;; Tracked objects:
  2939 ;;		On entry : 0/0
  2940 ;;		On exit  : 0/0
  2941 ;;		Unchanged: 0/0
  2942 ;; Data sizes:     COMRAM   BANK0   BANK1   BANK2   BANK3   BANK4   BANK5   BANK6   BANK7
  2943 ;;      Params:         0       0       0       0       0       0       0       0       0
  2944 ;;      Locals:         1       0       0       0       0       0       0       0       0
  2945 ;;      Temps:          0       0       0       0       0       0       0       0       0
  2946 ;;      Totals:         1       0       0       0       0       0       0       0       0
  2947 ;;Total ram usage:        1 bytes
  2948 ;; Hardware stack levels used:    1
  2949 ;; Hardware stack levels required when called:    8
  2950 ;; This function calls:
  2951 ;;		_USBCtrlEPAllowStatusStage
  2952 ;;		_USBCtrlEPService
  2953 ;;		_USBIncrement1msInternalTimers
  2954 ;;		_USBStallHandler
  2955 ;;		_USBSuspend
  2956 ;;		_USBWakeFromSuspend
  2957 ;;		_USER_USB_CALLBACK_EVENT_HANDLER
  2958 ;;		i2_USBDeviceInit
  2959 ;; This function is called by:
  2960 ;;		_SYS_InterruptHigh
  2961 ;; This function uses a non-reentrant model
  2962 ;;
  2963                           
  2964                           	psect	text15
  2965  00116A                     __ptext15:
  2966                           	opt stack 0
  2967  00116A                     _USBDeviceTasks:
  2968                           	opt stack 19
  2969                           
  2970                           ;usb_device.c: 498: uint8_t i;
  2971                           ;usb_device.c: 609: if(USBDeviceState == ATTACHED_STATE)
  2972                           
  2973                           ;incstack = 0
  2974  00116A  0100               	movlb	0	; () banked
  2975  00116C  0578               	decf	_USBDeviceState& (0+255),w,b	;volatile
  2976  00116E  B4D8               	btfsc	status,2,c
  2977                           
  2978                           ; BSR set to: 0
  2979                           ;usb_device.c: 610: {
  2980                           ;usb_device.c: 620: if(!UCONbits.SE0)
  2981  001170  BA6D               	btfsc	3949,5,c	;volatile
  2982  001172  D007               	goto	i2l3640
  2983                           
  2984                           ; BSR set to: 0
  2985                           ;usb_device.c: 621: {
  2986                           ;usb_device.c: 627: {UIR = 0;};
  2987  001174  0E00               	movlw	0
  2988  001176  6E68               	movwf	3944,c	;volatile
  2989                           
  2990                           ; BSR set to: 0
  2991                           ;usb_device.c: 633: UIEbits.URSTIE = 1;
  2992  001178  8069               	bsf	3945,0,c	;volatile
  2993                           
  2994                           ; BSR set to: 0
  2995                           ;usb_device.c: 634: UIEbits.IDLEIE = 1;
  2996  00117A  8869               	bsf	3945,4,c	;volatile
  2997                           
  2998                           ;usb_device.c: 635: USBDeviceState = POWERED_STATE;
  2999  00117C  0E02               	movlw	2
  3000  00117E  0100               	movlb	0	; () banked
  3001  001180  6F78               	movwf	_USBDeviceState& (0+255),b	;volatile
  3002  001182                     i2l3640:
  3003                           
  3004                           ; BSR set to: 0
  3005                           ;usb_device.c: 636: }
  3006                           ;usb_device.c: 637: }
  3007                           ;usb_device.c: 653: if(UIRbits.ACTVIF && UIEbits.ACTVIE)
  3008  001182  B468               	btfsc	3944,2,c	;volatile
  3009                           
  3010                           ; BSR set to: 0
  3011  001184  A469               	btfss	3945,2,c	;volatile
  3012  001186  D003               	goto	i2l3648
  3013                           
  3014                           ; BSR set to: 0
  3015                           ;usb_device.c: 654: {
  3016                           ;usb_device.c: 655: (UIR &= 0xFB);
  3017  001188  9468               	bcf	3944,2,c	;volatile
  3018                           
  3019                           ; BSR set to: 0
  3020                           ;usb_device.c: 659: USBWakeFromSuspend();
  3021  00118A  ECA9  F011         	call	_USBWakeFromSuspend	;wreg free
  3022  00118E                     i2l3648:
  3023                           
  3024                           ;usb_device.c: 661: }
  3025                           ;usb_device.c: 666: if(UCONbits.SUSPND==1)
  3026  00118E  B26D               	btfsc	3949,1,c	;volatile
  3027  001190  D083               	goto	i2l433
  3028                           
  3029                           ;usb_device.c: 670: }
  3030                           ;usb_device.c: 682: if(UIRbits.URSTIF && UIEbits.URSTIE)
  3031                           
  3032                           ;usb_device.c: 669: return;
  3033                           
  3034                           ;usb_device.c: 667: {
  3035                           ;usb_device.c: 668: {PIR2bits.USBIF = 0;};
  3036  001192  B068               	btfsc	3944,0,c	;volatile
  3037  001194  A069               	btfss	3945,0,c	;volatile
  3038  001196  D007               	goto	i2l3662
  3039                           
  3040                           ;usb_device.c: 683: {
  3041                           ;usb_device.c: 684: USBDeviceInit();
  3042  001198  EC65  F007         	call	i2_USBDeviceInit	;wreg free
  3043                           
  3044                           ;usb_device.c: 688: {PIE2bits.USBIE = 1;};
  3045  00119C  8AA0               	bsf	4000,5,c	;volatile
  3046                           
  3047                           ;usb_device.c: 690: USBDeviceState = DEFAULT_STATE;
  3048  00119E  0E04               	movlw	4
  3049  0011A0  0100               	movlb	0	; () banked
  3050  0011A2  6F78               	movwf	_USBDeviceState& (0+255),b	;volatile
  3051                           
  3052                           ; BSR set to: 0
  3053                           ;usb_device.c: 700: (UIR &= 0xFE);
  3054  0011A4  9068               	bcf	3944,0,c	;volatile
  3055  0011A6                     i2l3662:
  3056                           
  3057                           ;usb_device.c: 701: }
  3058                           ;usb_device.c: 706: if(UIRbits.IDLEIF && UIEbits.IDLEIE)
  3059  0011A6  B868               	btfsc	3944,4,c	;volatile
  3060  0011A8  A869               	btfss	3945,4,c	;volatile
  3061  0011AA  D002               	goto	i2l3668
  3062                           
  3063                           ;usb_device.c: 707: {
  3064                           ;usb_device.c: 713: USBSuspend();
  3065  0011AC  ECD9  F011         	call	_USBSuspend	;wreg free
  3066  0011B0                     i2l3668:
  3067                           
  3068                           ;usb_device.c: 715: }
  3069                           ;usb_device.c: 727: if(UIRbits.SOFIF)
  3070  0011B0  AC68               	btfss	3944,6,c	;volatile
  3071  0011B2  D01A               	goto	i2l3686
  3072                           
  3073                           ;usb_device.c: 728: {
  3074                           ;usb_device.c: 730: if(UIEbits.SOFIE)
  3075  0011B4  AC69               	btfss	3945,6,c	;volatile
  3076  0011B6  D00E               	goto	i2l3674
  3077                           
  3078                           ;usb_device.c: 731: {
  3079                           ;usb_device.c: 732: USER_USB_CALLBACK_EVENT_HANDLER(EVENT_SOF,0,1);
  3080  0011B8  0E00               	movlw	0
  3081  0011BA  6E10               	movwf	USER_USB_CALLBACK_EVENT_HANDLER@event+1,c
  3082  0011BC  0E73               	movlw	115
  3083  0011BE  6E0F               	movwf	USER_USB_CALLBACK_EVENT_HANDLER@event,c
  3084  0011C0  0E00               	movlw	0
  3085  0011C2  6E12               	movwf	USER_USB_CALLBACK_EVENT_HANDLER@pdata+1,c
  3086  0011C4  0E00               	movlw	0
  3087  0011C6  6E11               	movwf	USER_USB_CALLBACK_EVENT_HANDLER@pdata,c
  3088  0011C8  0E00               	movlw	0
  3089  0011CA  6E14               	movwf	USER_USB_CALLBACK_EVENT_HANDLER@size+1,c
  3090  0011CC  0E01               	movlw	1
  3091  0011CE  6E13               	movwf	USER_USB_CALLBACK_EVENT_HANDLER@size,c
  3092  0011D0  ECBE  F00F         	call	_USER_USB_CALLBACK_EVENT_HANDLER	;wreg free
  3093  0011D4                     i2l3674:
  3094                           
  3095                           ;usb_device.c: 733: }
  3096                           ;usb_device.c: 734: (UIR &= 0xBF);
  3097  0011D4  9C68               	bcf	3944,6,c	;volatile
  3098                           
  3099                           ;usb_device.c: 737: USBIncrement1msInternalTimers();
  3100  0011D6  EC48  F012         	call	_USBIncrement1msInternalTimers	;wreg free
  3101                           
  3102                           ;usb_device.c: 754: if(USBStatusStageTimeoutCounter != 0u)
  3103  0011DA  5047               	movf	_USBStatusStageTimeoutCounter,w,c	;volatile
  3104  0011DC  A4D8               	btfss	status,2,c
  3105                           
  3106                           ;usb_device.c: 755: {
  3107                           ;usb_device.c: 756: USBStatusStageTimeoutCounter--;
  3108  0011DE  0647               	decf	_USBStatusStageTimeoutCounter,f,c	;volatile
  3109                           
  3110                           ;usb_device.c: 757: }
  3111                           ;usb_device.c: 763: if(USBStatusStageTimeoutCounter == 0)
  3112  0011E0  6647               	tstfsz	_USBStatusStageTimeoutCounter,c	;volatile
  3113  0011E2  D002               	goto	i2l3686
  3114                           
  3115                           ;usb_device.c: 764: {
  3116                           ;usb_device.c: 765: USBCtrlEPAllowStatusStage();
  3117  0011E4  ECE0  F00D         	call	_USBCtrlEPAllowStatusStage	;wreg free
  3118  0011E8                     i2l3686:
  3119                           
  3120                           ;usb_device.c: 766: }
  3121                           ;usb_device.c: 768: }
  3122                           ;usb_device.c: 770: if(UIRbits.STALLIF && UIEbits.STALLIE)
  3123  0011E8  BA68               	btfsc	3944,5,c	;volatile
  3124  0011EA  AA69               	btfss	3945,5,c	;volatile
  3125  0011EC  D002               	goto	i2l3692
  3126                           
  3127                           ;usb_device.c: 771: {
  3128                           ;usb_device.c: 772: USBStallHandler();
  3129  0011EE  ECAC  F010         	call	_USBStallHandler	;wreg free
  3130  0011F2                     i2l3692:
  3131                           
  3132                           ;usb_device.c: 773: }
  3133                           ;usb_device.c: 775: if(UIRbits.UERRIF && UIEbits.UERRIE)
  3134  0011F2  B268               	btfsc	3944,1,c	;volatile
  3135  0011F4  A269               	btfss	3945,1,c	;volatile
  3136  0011F6  D00F               	goto	i2l3700
  3137                           
  3138                           ;usb_device.c: 776: {
  3139                           ;usb_device.c: 777: USER_USB_CALLBACK_EVENT_HANDLER(EVENT_BUS_ERROR,0,1);
  3140  0011F8  0E7F               	movlw	127
  3141  0011FA  6E10               	movwf	USER_USB_CALLBACK_EVENT_HANDLER@event+1,c
  3142  0011FC  680F               	setf	USER_USB_CALLBACK_EVENT_HANDLER@event,c
  3143  0011FE  0E00               	movlw	0
  3144  001200  6E12               	movwf	USER_USB_CALLBACK_EVENT_HANDLER@pdata+1,c
  3145  001202  0E00               	movlw	0
  3146  001204  6E11               	movwf	USER_USB_CALLBACK_EVENT_HANDLER@pdata,c
  3147  001206  0E00               	movlw	0
  3148  001208  6E14               	movwf	USER_USB_CALLBACK_EVENT_HANDLER@size+1,c
  3149  00120A  0E01               	movlw	1
  3150  00120C  6E13               	movwf	USER_USB_CALLBACK_EVENT_HANDLER@size,c
  3151  00120E  ECBE  F00F         	call	_USER_USB_CALLBACK_EVENT_HANDLER	;wreg free
  3152                           
  3153                           ;usb_device.c: 778: {UEIR = 0;};
  3154  001212  0E00               	movlw	0
  3155  001214  6E6A               	movwf	3946,c	;volatile
  3156  001216                     i2l3700:
  3157                           
  3158                           ;usb_device.c: 786: }
  3159                           ;usb_device.c: 793: if(USBDeviceState < DEFAULT_STATE)
  3160  001216  0E04               	movlw	4
  3161  001218  0100               	movlb	0	; () banked
  3162  00121A  5D78               	subwf	_USBDeviceState& (0+255),w,b	;volatile
  3163  00121C  B0D8               	btfsc	status,0,c
  3164                           
  3165                           ; BSR set to: 0
  3166                           ;usb_device.c: 797: }
  3167                           ;usb_device.c: 802: if(UIEbits.TRNIE)
  3168                           
  3169                           ;usb_device.c: 796: return;
  3170                           
  3171                           ; BSR set to: 0
  3172                           ;usb_device.c: 794: {
  3173                           ;usb_device.c: 795: {PIR2bits.USBIF = 0;};
  3174  00121E  A669               	btfss	3945,3,c	;volatile
  3175  001220  D03B               	goto	i2l433
  3176                           
  3177                           ; BSR set to: 0
  3178                           ;usb_device.c: 803: {
  3179                           ;usb_device.c: 804: for(i = 0; i < 4u; i++)
  3180  001222  0E00               	movlw	0
  3181  001224  6E24               	movwf	USBDeviceTasks@i,c
  3182  001226  D035               	goto	L9
  3183  001228                     i2l434:
  3184                           
  3185                           ;usb_device.c: 805: {
  3186                           ;usb_device.c: 806: if(UIRbits.TRNIF)
  3187  001228  A668               	btfss	3944,3,c	;volatile
  3188  00122A  D036               	goto	i2l433
  3189                           
  3190                           ;usb_device.c: 807: {
  3191                           ;usb_device.c: 809: USTATcopy.Val = USTAT;
  3192  00122C  CF6C F04E          	movff	3948,_USTATcopy	;volatile
  3193                           
  3194                           ;usb_device.c: 810: endpoint_number = USTATcopy.endpoint_number;
  3195  001230  304E               	rrcf	_USTATcopy,w,c	;volatile
  3196  001232  32E8               	rrcf	wreg,f,c
  3197  001234  32E8               	rrcf	wreg,f,c
  3198  001236  0B0F               	andlw	15
  3199  001238  6E4A               	movwf	_endpoint_number,c	;volatile
  3200                           
  3201                           ;usb_device.c: 812: (UIR &= 0xF7);
  3202  00123A  9668               	bcf	3944,3,c	;volatile
  3203                           
  3204                           ;usb_device.c: 817: if(USTATcopy.direction == 0)
  3205  00123C  B44E               	btfsc	_USTATcopy,2,c	;volatile
  3206  00123E  D009               	goto	i2l3720
  3207                           
  3208                           ;usb_device.c: 818: {
  3209                           ;usb_device.c: 819: ep_data_out[endpoint_number].bits.ping_pong_state ^= 1;
  3210  001240  504A               	movf	_endpoint_number,w,c	;volatile
  3211  001242  0D01               	mullw	1
  3212  001244  0100               	movlb	0	; () banked
  3213  001246  0E76               	movlw	low _ep_data_out	;volatile
  3214  001248  24F3               	addwf	prodl,w,c
  3215  00124A  6ED9               	movwf	fsr2l,c
  3216  00124C  0100               	movlb	0	; () banked
  3217  00124E  0E00               	movlw	high _ep_data_out	;volatile
  3218  001250  D008               	goto	L8
  3219  001252                     i2l3720:
  3220                           
  3221                           ;usb_device.c: 821: else
  3222                           ;usb_device.c: 822: {
  3223                           ;usb_device.c: 823: ep_data_in[endpoint_number].bits.ping_pong_state ^= 1;
  3224  001252  504A               	movf	_endpoint_number,w,c	;volatile
  3225  001254  0D01               	mullw	1
  3226  001256  0100               	movlb	0	; () banked
  3227  001258  0E74               	movlw	low _ep_data_in	;volatile
  3228  00125A  24F3               	addwf	prodl,w,c
  3229  00125C  6ED9               	movwf	fsr2l,c
  3230  00125E  0100               	movlb	0	; () banked
  3231  001260  0E00               	movlw	high _ep_data_in	;volatile
  3232  001262                     L8:
  3233  001262  20F4               	addwfc	prodh,w,c
  3234  001264  6EDA               	movwf	fsr2h,c
  3235  001266  0100               	movlb	0	; () banked
  3236  001268  70DF               	btg	indf2,0,c
  3237                           
  3238                           ; BSR set to: 0
  3239                           ;usb_device.c: 824: }
  3240                           ;usb_device.c: 829: if(endpoint_number == 0)
  3241                           
  3242                           ; BSR set to: 0
  3243  00126A  664A               	tstfsz	_endpoint_number,c	;volatile
  3244  00126C  D003               	goto	i2l3726
  3245                           
  3246                           ; BSR set to: 0
  3247                           ;usb_device.c: 830: {
  3248                           ;usb_device.c: 831: USBCtrlEPService();
  3249  00126E  ECAA  F00C         	call	_USBCtrlEPService	;wreg free
  3250                           
  3251                           ;usb_device.c: 832: }
  3252  001272  D00E               	goto	i2l3728
  3253  001274                     i2l3726:
  3254                           
  3255                           ;usb_device.c: 833: else
  3256                           ;usb_device.c: 834: {
  3257                           ;usb_device.c: 835: USER_USB_CALLBACK_EVENT_HANDLER(EVENT_TRANSFER,(uint8_t*)&USTATcopy.
      +                          Val,0);
  3258  001274  0E00               	movlw	0
  3259  001276  6E10               	movwf	USER_USB_CALLBACK_EVENT_HANDLER@event+1,c
  3260  001278  0E72               	movlw	114
  3261  00127A  6E0F               	movwf	USER_USB_CALLBACK_EVENT_HANDLER@event,c
  3262  00127C  0E00               	movlw	high _USTATcopy	;volatile
  3263  00127E  6E12               	movwf	USER_USB_CALLBACK_EVENT_HANDLER@pdata+1,c
  3264  001280  0E4E               	movlw	low _USTATcopy	;volatile
  3265  001282  6E11               	movwf	USER_USB_CALLBACK_EVENT_HANDLER@pdata,c
  3266  001284  0E00               	movlw	0
  3267  001286  6E14               	movwf	USER_USB_CALLBACK_EVENT_HANDLER@size+1,c
  3268  001288  0E00               	movlw	0
  3269  00128A  6E13               	movwf	USER_USB_CALLBACK_EVENT_HANDLER@size,c
  3270  00128C  ECBE  F00F         	call	_USER_USB_CALLBACK_EVENT_HANDLER	;wreg free
  3271  001290                     i2l3728:
  3272  001290  2A24               	incf	USBDeviceTasks@i,f,c
  3273  001292                     L9:
  3274  001292  0E03               	movlw	3
  3275  001294  6424               	cpfsgt	USBDeviceTasks@i,c
  3276  001296  D7C8               	goto	i2l434
  3277  001298                     i2l433:
  3278                           
  3279                           ;usb_device.c: 841: }
  3280                           ;usb_device.c: 842: }
  3281                           ;usb_device.c: 843: }
  3282                           ;usb_device.c: 845: {PIR2bits.USBIF = 0;};
  3283  001298  9AA1               	bcf	4001,5,c	;volatile
  3284  00129A  0012               	return	
  3285  00129C                     __end_of_USBDeviceTasks:
  3286                           	opt stack 0
  3287                           pclatu	equ	0xFFB
  3288                           pclath	equ	0xFFA
  3289                           tblptru	equ	0xFF8
  3290                           tblptrh	equ	0xFF7
  3291                           tblptrl	equ	0xFF6
  3292                           tablat	equ	0xFF5
  3293                           prodh	equ	0xFF4
  3294                           prodl	equ	0xFF3
  3295                           intcon	equ	0xFF2
  3296                           postinc0	equ	0xFEE
  3297                           fsr0h	equ	0xFEA
  3298                           fsr0l	equ	0xFE9
  3299                           wreg	equ	0xFE8
  3300                           fsr1h	equ	0xFE2
  3301                           fsr1l	equ	0xFE1
  3302                           indf2	equ	0xFDF
  3303                           postinc2	equ	0xFDE
  3304                           postdec2	equ	0xFDD
  3305                           plusw2	equ	0xFDB
  3306                           fsr2h	equ	0xFDA
  3307                           fsr2l	equ	0xFD9
  3308                           status	equ	0xFD8
  3309                           
  3310 ;; *************** function i2_USBDeviceInit *****************
  3311 ;; Defined at:
  3312 ;;		line 300 in file "../src/usb_device.c"
  3313 ;; Parameters:    Size  Location     Type
  3314 ;;		None
  3315 ;; Auto vars:     Size  Location     Type
  3316 ;;  USBDeviceIni    1    8[COMRAM] unsigned char 
  3317 ;; Return value:  Size  Location     Type
  3318 ;;		None               void
  3319 ;; Registers used:
  3320 ;;		wreg, fsr2l, fsr2h, status,2, status,0, prodl, prodh, cstack
  3321 ;; Tracked objects:
  3322 ;;		On entry : 0/0
  3323 ;;		On exit  : 0/0
  3324 ;;		Unchanged: 0/0
  3325 ;; Data sizes:     COMRAM   BANK0   BANK1   BANK2   BANK3   BANK4   BANK5   BANK6   BANK7
  3326 ;;      Params:         0       0       0       0       0       0       0       0       0
  3327 ;;      Locals:         1       0       0       0       0       0       0       0       0
  3328 ;;      Temps:          0       0       0       0       0       0       0       0       0
  3329 ;;      Totals:         1       0       0       0       0       0       0       0       0
  3330 ;;Total ram usage:        1 bytes
  3331 ;; Hardware stack levels used:    1
  3332 ;; Hardware stack levels required when called:    1
  3333 ;; This function calls:
  3334 ;;		i2_memset
  3335 ;; This function is called by:
  3336 ;;		_USBDeviceTasks
  3337 ;; This function uses a non-reentrant model
  3338 ;;
  3339                           
  3340                           	psect	text16
  3341  000ECA                     __ptext16:
  3342                           	opt stack 0
  3343  000ECA                     i2_USBDeviceInit:
  3344                           	opt stack 25
  3345                           
  3346                           ;usb_device.c: 302: uint8_t i;
  3347                           ;usb_device.c: 304: {PIE2bits.USBIE = 0;};
  3348                           
  3349                           ;incstack = 0
  3350  000ECA  9AA0               	bcf	4000,5,c	;volatile
  3351                           
  3352                           ;usb_device.c: 307: {UEIR = 0;};
  3353  000ECC  0E00               	movlw	0
  3354  000ECE  6E6A               	movwf	3946,c	;volatile
  3355                           
  3356                           ;usb_device.c: 310: {UIR = 0;};
  3357  000ED0  0E00               	movlw	0
  3358  000ED2  6E68               	movwf	3944,c	;volatile
  3359                           
  3360                           ;usb_device.c: 313: UEP0 = 0;
  3361  000ED4  0E00               	movlw	0
  3362  000ED6  6E70               	movwf	3952,c	;volatile
  3363                           
  3364                           ;usb_device.c: 315: memset((void*)&UEP1,0x00,(1));;
  3365  000ED8  0E0F               	movlw	15	;volatile
  3366  000EDA  6E02               	movwf	i2memset@p1+1,c
  3367  000EDC  0E71               	movlw	113	;volatile
  3368  000EDE  6E01               	movwf	i2memset@p1,c
  3369  000EE0  0E00               	movlw	0
  3370  000EE2  6E04               	movwf	i2memset@c+1,c
  3371  000EE4  0E00               	movlw	0
  3372  000EE6  6E03               	movwf	i2memset@c,c
  3373  000EE8  0E00               	movlw	0
  3374  000EEA  6E06               	movwf	i2memset@n+1,c
  3375  000EEC  0E01               	movlw	1
  3376  000EEE  6E05               	movwf	i2memset@n,c
  3377  000EF0  ECEF  F011         	call	i2_memset	;wreg free
  3378                           
  3379                           ;usb_device.c: 317: { UCFG = 0x10 | 0x00 | 0x04 | 0x02; UEIE = 0x9F; UIE = 0x39 | 0x40 |
      +                           0x02; };
  3380  000EF4  0E16               	movlw	22
  3381  000EF6  6E6F               	movwf	3951,c	;volatile
  3382  000EF8  0E9F               	movlw	159
  3383  000EFA  6E6B               	movwf	3947,c	;volatile
  3384  000EFC  0E7B               	movlw	123
  3385  000EFE  6E69               	movwf	3945,c	;volatile
  3386                           
  3387                           ;usb_device.c: 320: ;
  3388                           ;usb_device.c: 323: ;
  3389                           ;usb_device.c: 326: for(i = 0; i < (sizeof(BDT)/sizeof(BDT_ENTRY)); i++)
  3390  000F00  0E00               	movlw	0
  3391  000F02  6E09               	movwf	i2USBDeviceInit@i,c
  3392  000F04  D00F               	goto	L10
  3393  000F06                     i2l3564:
  3394                           
  3395                           ;usb_device.c: 327: {
  3396                           ;usb_device.c: 328: BDT[i].Val = 0x00;
  3397  000F06  5009               	movf	i2USBDeviceInit@i,w,c
  3398  000F08  0D04               	mullw	4
  3399  000F0A  0104               	movlb	4	; () banked
  3400  000F0C  0E00               	movlw	0	;volatile
  3401  000F0E  24F3               	addwf	prodl,w,c
  3402  000F10  6ED9               	movwf	fsr2l,c
  3403  000F12  0104               	movlb	4	; () banked
  3404  000F14  0E04               	movlw	4	;volatile
  3405  000F16  20F4               	addwfc	prodh,w,c
  3406  000F18  6EDA               	movwf	fsr2h,c
  3407  000F1A  6ADE               	clrf	postinc2,c
  3408  000F1C  6ADE               	clrf	postinc2,c
  3409  000F1E  6ADE               	clrf	postinc2,c
  3410  000F20  6ADD               	clrf	postdec2,c
  3411                           
  3412                           ; BSR set to: 4
  3413  000F22  2A09               	incf	i2USBDeviceInit@i,f,c
  3414  000F24                     L10:
  3415                           
  3416                           ; BSR set to: 4
  3417  000F24  0E07               	movlw	7
  3418  000F26  6409               	cpfsgt	i2USBDeviceInit@i,c
  3419  000F28  D7EE               	goto	i2l3564
  3420                           
  3421                           ;usb_device.c: 329: }
  3422                           ;usb_device.c: 332: UCONbits.PPBRST = 1;
  3423  000F2A  8C6D               	bsf	3949,6,c	;volatile
  3424                           
  3425                           ;usb_device.c: 335: UADDR = 0x00;
  3426  000F2C  0E00               	movlw	0
  3427  000F2E  6E6E               	movwf	3950,c	;volatile
  3428                           
  3429                           ;usb_device.c: 338: UCONbits.PKTDIS = 0;
  3430  000F30  986D               	bcf	3949,4,c	;volatile
  3431                           
  3432                           ;usb_device.c: 341: UCONbits.PPBRST = 0;
  3433  000F32  9C6D               	bcf	3949,6,c	;volatile
  3434  000F34                     i2l3576:
  3435                           
  3436                           ;usb_device.c: 345: {
  3437                           ;usb_device.c: 346: (UIR &= 0xF7);
  3438  000F34  9668               	bcf	3944,3,c	;volatile
  3439                           
  3440                           ;usb_device.c: 348: inPipes[0].info.Val = 0;
  3441  000F36  0E00               	movlw	0
  3442  000F38  0100               	movlb	0	; () banked
  3443  000F3A  6F7C               	movwf	(_inPipes+3)& (0+255),b	;volatile
  3444                           
  3445                           ; BSR set to: 0
  3446                           ;usb_device.c: 349: outPipes[0].info.Val = 0;
  3447  000F3C  0E00               	movlw	0
  3448  000F3E  0100               	movlb	0	; () banked
  3449  000F40  6F63               	movwf	(_outPipes+3)& (0+255),b	;volatile
  3450                           
  3451                           ; BSR set to: 0
  3452                           ;usb_device.c: 350: outPipes[0].wCount.Val = 0;
  3453  000F42  0E00               	movlw	0
  3454  000F44  0100               	movlb	0	; () banked
  3455  000F46  6F65               	movwf	(_outPipes+5)& (0+255),b	;volatile
  3456  000F48  0E00               	movlw	0
  3457  000F4A  0100               	movlb	0	; () banked
  3458  000F4C  6F64               	movwf	(_outPipes+4)& (0+255),b	;volatile
  3459                           
  3460                           ; BSR set to: 0
  3461                           ;usb_device.c: 351: }while(UIRbits.TRNIF == 1);
  3462  000F4E  B668               	btfsc	3944,3,c	;volatile
  3463  000F50  D7F1               	goto	i2l3576
  3464                           
  3465                           ; BSR set to: 0
  3466                           ;usb_device.c: 355: USBStatusStageEnabledFlag1 = 1;
  3467                           
  3468                           ; BSR set to: 0
  3469  000F52  0E01               	movlw	1
  3470  000F54  6E45               	movwf	_USBStatusStageEnabledFlag1,c	;volatile
  3471                           
  3472                           ;usb_device.c: 356: USBStatusStageEnabledFlag2 = 1;
  3473  000F56  0E01               	movlw	1
  3474  000F58  6E46               	movwf	_USBStatusStageEnabledFlag2,c	;volatile
  3475                           
  3476                           ;usb_device.c: 358: USBDeferINDataStagePackets = 0;
  3477  000F5A  0E00               	movlw	0
  3478  000F5C  6E42               	movwf	_USBDeferINDataStagePackets,c	;volatile
  3479                           
  3480                           ;usb_device.c: 359: USBDeferOUTDataStagePackets = 0;
  3481  000F5E  0E00               	movlw	0
  3482  000F60  6E43               	movwf	_USBDeferOUTDataStagePackets,c	;volatile
  3483                           
  3484                           ;usb_device.c: 360: USBBusIsSuspended = 0;
  3485  000F62  0E00               	movlw	0
  3486  000F64  6E41               	movwf	_USBBusIsSuspended,c	;volatile
  3487                           
  3488                           ;usb_device.c: 364: for(i = 0; i < (uint8_t)(1+1u); i++)
  3489  000F66  0E00               	movlw	0
  3490  000F68  6E09               	movwf	i2USBDeviceInit@i,c
  3491  000F6A  D035               	goto	L11
  3492  000F6C                     i2l3592:
  3493                           
  3494                           ; BSR set to: 0
  3495                           ;usb_device.c: 365: {
  3496                           ;usb_device.c: 366: pBDTEntryIn[i] = 0u;
  3497  000F6C  5009               	movf	i2USBDeviceInit@i,w,c
  3498  000F6E  0D02               	mullw	2
  3499  000F70  0100               	movlb	0	; () banked
  3500  000F72  0E68               	movlw	low _pBDTEntryIn
  3501  000F74  24F3               	addwf	prodl,w,c
  3502  000F76  6ED9               	movwf	fsr2l,c
  3503  000F78  0100               	movlb	0	; () banked
  3504  000F7A  0E00               	movlw	high _pBDTEntryIn
  3505  000F7C  20F4               	addwfc	prodh,w,c
  3506  000F7E  6EDA               	movwf	fsr2h,c
  3507  000F80  0E00               	movlw	0
  3508  000F82  6EDE               	movwf	postinc2,c
  3509  000F84  0E00               	movlw	0
  3510  000F86  6EDD               	movwf	postdec2,c
  3511                           
  3512                           ;usb_device.c: 367: pBDTEntryOut[i] = 0u;
  3513  000F88  5009               	movf	i2USBDeviceInit@i,w,c
  3514  000F8A  0D02               	mullw	2
  3515  000F8C  0100               	movlb	0	; () banked
  3516  000F8E  0E6C               	movlw	low _pBDTEntryOut
  3517  000F90  24F3               	addwf	prodl,w,c
  3518  000F92  6ED9               	movwf	fsr2l,c
  3519  000F94  0100               	movlb	0	; () banked
  3520  000F96  0E00               	movlw	high _pBDTEntryOut
  3521  000F98  20F4               	addwfc	prodh,w,c
  3522  000F9A  6EDA               	movwf	fsr2h,c
  3523  000F9C  0E00               	movlw	0
  3524  000F9E  6EDE               	movwf	postinc2,c
  3525  000FA0  0E00               	movlw	0
  3526  000FA2  6EDD               	movwf	postdec2,c
  3527                           
  3528                           ;usb_device.c: 368: ep_data_in[i].Val = 0u;
  3529  000FA4  5009               	movf	i2USBDeviceInit@i,w,c
  3530  000FA6  0D01               	mullw	1
  3531  000FA8  0100               	movlb	0	; () banked
  3532  000FAA  0E74               	movlw	low _ep_data_in	;volatile
  3533  000FAC  24F3               	addwf	prodl,w,c
  3534  000FAE  6ED9               	movwf	fsr2l,c
  3535  000FB0  0100               	movlb	0	; () banked
  3536  000FB2  0E00               	movlw	high _ep_data_in	;volatile
  3537  000FB4  20F4               	addwfc	prodh,w,c
  3538  000FB6  6EDA               	movwf	fsr2h,c
  3539  000FB8  0E00               	movlw	0
  3540  000FBA  6EDF               	movwf	indf2,c
  3541                           
  3542                           ;usb_device.c: 369: ep_data_out[i].Val = 0u;
  3543  000FBC  5009               	movf	i2USBDeviceInit@i,w,c
  3544  000FBE  0D01               	mullw	1
  3545  000FC0  0100               	movlb	0	; () banked
  3546  000FC2  0E76               	movlw	low _ep_data_out	;volatile
  3547  000FC4  24F3               	addwf	prodl,w,c
  3548  000FC6  6ED9               	movwf	fsr2l,c
  3549  000FC8  0100               	movlb	0	; () banked
  3550  000FCA  0E00               	movlw	high _ep_data_out	;volatile
  3551  000FCC  20F4               	addwfc	prodh,w,c
  3552  000FCE  6EDA               	movwf	fsr2h,c
  3553  000FD0  0E00               	movlw	0
  3554  000FD2  6EDF               	movwf	indf2,c
  3555                           
  3556                           ; BSR set to: 0
  3557  000FD4  2A09               	incf	i2USBDeviceInit@i,f,c
  3558  000FD6                     L11:
  3559                           
  3560                           ; BSR set to: 0
  3561  000FD6  0E01               	movlw	1
  3562  000FD8  6409               	cpfsgt	i2USBDeviceInit@i,c
  3563  000FDA  D7C8               	goto	i2l3592
  3564                           
  3565                           ; BSR set to: 0
  3566                           ;usb_device.c: 370: }
  3567                           ;usb_device.c: 373: pBDTEntryIn[0] = (volatile BDT_ENTRY*)&BDT[2];
  3568                           
  3569                           ; BSR set to: 0
  3570  000FDC  0104               	movlb	4	; () banked
  3571  000FDE  0E04               	movlw	4	;volatile
  3572  000FE0  0100               	movlb	0	; () banked
  3573  000FE2  6F69               	movwf	(_pBDTEntryIn+1)& (0+255),b
  3574  000FE4  0104               	movlb	4	; () banked
  3575  000FE6  0E08               	movlw	8	;volatile
  3576  000FE8  0100               	movlb	0	; () banked
  3577  000FEA  6F68               	movwf	_pBDTEntryIn& (0+255),b
  3578                           
  3579                           ; BSR set to: 0
  3580                           ;usb_device.c: 375: UEP0 = 0x06|0x10;
  3581  000FEC  0E16               	movlw	22
  3582  000FEE  6E70               	movwf	3952,c	;volatile
  3583                           
  3584                           ; BSR set to: 0
  3585                           ;usb_device.c: 377: BDT[0].ADR = ((uint16_t)(&SetupPkt));
  3586  000FF0  0E04               	movlw	4
  3587  000FF2  0104               	movlb	4	; () banked
  3588  000FF4  6F03               	movwf	3,b	;volatile
  3589  000FF6  0E20               	movlw	32
  3590  000FF8  0104               	movlb	4	; () banked
  3591  000FFA  6F02               	movwf	2,b	;volatile
  3592                           
  3593                           ; BSR set to: 4
  3594                           ;usb_device.c: 378: BDT[0].CNT = 8;
  3595  000FFC  0E08               	movlw	8
  3596  000FFE  0104               	movlb	4	; () banked
  3597  001000  6F01               	movwf	1,b	;volatile
  3598                           
  3599                           ; BSR set to: 4
  3600                           ;usb_device.c: 379: BDT[0].STAT.Val = 0x00|0x04;
  3601  001002  0E04               	movlw	4
  3602  001004  0104               	movlb	4	; () banked
  3603  001006  6F00               	movwf	0,b	;volatile
  3604                           
  3605                           ; BSR set to: 4
  3606                           ;usb_device.c: 380: BDT[0].STAT.Val |= 0x80;
  3607  001008  0104               	movlb	4	; () banked
  3608  00100A  8F00               	bsf	0,7,b	;volatile
  3609                           
  3610                           ; BSR set to: 4
  3611                           ;usb_device.c: 383: USBActiveConfiguration = 0;
  3612  00100C  0E00               	movlw	0
  3613  00100E  6E4C               	movwf	_USBActiveConfiguration,c	;volatile
  3614                           
  3615                           ; BSR set to: 4
  3616                           ;usb_device.c: 385: USB1msTickCount = 0;
  3617  001010  0E00               	movlw	0
  3618  001012  6E33               	movwf	_USB1msTickCount,c	;volatile
  3619  001014  0E00               	movlw	0
  3620  001016  6E34               	movwf	_USB1msTickCount+1,c	;volatile
  3621  001018  0E00               	movlw	0
  3622  00101A  6E35               	movwf	_USB1msTickCount+2,c	;volatile
  3623  00101C  0E00               	movlw	0
  3624  00101E  6E36               	movwf	_USB1msTickCount+3,c	;volatile
  3625                           
  3626                           ; BSR set to: 4
  3627                           ;usb_device.c: 386: USBTicksSinceSuspendEnd = 0;
  3628  001020  0E00               	movlw	0
  3629  001022  6E48               	movwf	_USBTicksSinceSuspendEnd,c	;volatile
  3630                           
  3631                           ; BSR set to: 4
  3632                           ;usb_device.c: 389: USBDeviceState = DETACHED_STATE;
  3633  001024  0E00               	movlw	0
  3634  001026  0100               	movlb	0	; () banked
  3635  001028  6F78               	movwf	_USBDeviceState& (0+255),b	;volatile
  3636                           
  3637                           ; BSR set to: 0
  3638  00102A  0012               	return	
  3639  00102C                     __end_ofi2_USBDeviceInit:
  3640                           	opt stack 0
  3641                           pclatu	equ	0xFFB
  3642                           pclath	equ	0xFFA
  3643                           tblptru	equ	0xFF8
  3644                           tblptrh	equ	0xFF7
  3645                           tblptrl	equ	0xFF6
  3646                           tablat	equ	0xFF5
  3647                           prodh	equ	0xFF4
  3648                           prodl	equ	0xFF3
  3649                           intcon	equ	0xFF2
  3650                           postinc0	equ	0xFEE
  3651                           fsr0h	equ	0xFEA
  3652                           fsr0l	equ	0xFE9
  3653                           wreg	equ	0xFE8
  3654                           fsr1h	equ	0xFE2
  3655                           fsr1l	equ	0xFE1
  3656                           indf2	equ	0xFDF
  3657                           postinc2	equ	0xFDE
  3658                           postdec2	equ	0xFDD
  3659                           plusw2	equ	0xFDB
  3660                           fsr2h	equ	0xFDA
  3661                           fsr2l	equ	0xFD9
  3662                           status	equ	0xFD8
  3663                           
  3664 ;; *************** function _USBWakeFromSuspend *****************
  3665 ;; Defined at:
  3666 ;;		line 2322 in file "../src/usb_device.c"
  3667 ;; Parameters:    Size  Location     Type
  3668 ;;		None
  3669 ;; Auto vars:     Size  Location     Type
  3670 ;;		None
  3671 ;; Return value:  Size  Location     Type
  3672 ;;		None               void
  3673 ;; Registers used:
  3674 ;;		wreg, fsr2l, fsr2h, status,2, status,0, prodl, prodh, cstack
  3675 ;; Tracked objects:
  3676 ;;		On entry : 0/0
  3677 ;;		On exit  : 0/0
  3678 ;;		Unchanged: 0/0
  3679 ;; Data sizes:     COMRAM   BANK0   BANK1   BANK2   BANK3   BANK4   BANK5   BANK6   BANK7
  3680 ;;      Params:         0       0       0       0       0       0       0       0       0
  3681 ;;      Locals:         0       0       0       0       0       0       0       0       0
  3682 ;;      Temps:          0       0       0       0       0       0       0       0       0
  3683 ;;      Totals:         0       0       0       0       0       0       0       0       0
  3684 ;;Total ram usage:        0 bytes
  3685 ;; Hardware stack levels used:    1
  3686 ;; Hardware stack levels required when called:    4
  3687 ;; This function calls:
  3688 ;;		_USER_USB_CALLBACK_EVENT_HANDLER
  3689 ;; This function is called by:
  3690 ;;		_USBDeviceTasks
  3691 ;; This function uses a non-reentrant model
  3692 ;;
  3693                           
  3694                           	psect	text17
  3695  002352                     __ptext17:
  3696                           	opt stack 0
  3697  002352                     _USBWakeFromSuspend:
  3698                           	opt stack 22
  3699                           
  3700                           ;usb_device.c: 2324: USBBusIsSuspended = 0;
  3701                           
  3702                           ; BSR set to: 0
  3703                           ;incstack = 0
  3704  002352  0E00               	movlw	0
  3705  002354  6E41               	movwf	_USBBusIsSuspended,c	;volatile
  3706                           
  3707                           ;usb_device.c: 2330: USER_USB_CALLBACK_EVENT_HANDLER(EVENT_RESUME,0,0);
  3708  002356  0E00               	movlw	0
  3709  002358  6E10               	movwf	USER_USB_CALLBACK_EVENT_HANDLER@event+1,c
  3710  00235A  0E74               	movlw	116
  3711  00235C  6E0F               	movwf	USER_USB_CALLBACK_EVENT_HANDLER@event,c
  3712  00235E  0E00               	movlw	0
  3713  002360  6E12               	movwf	USER_USB_CALLBACK_EVENT_HANDLER@pdata+1,c
  3714  002362  0E00               	movlw	0
  3715  002364  6E11               	movwf	USER_USB_CALLBACK_EVENT_HANDLER@pdata,c
  3716  002366  0E00               	movlw	0
  3717  002368  6E14               	movwf	USER_USB_CALLBACK_EVENT_HANDLER@size+1,c
  3718  00236A  0E00               	movlw	0
  3719  00236C  6E13               	movwf	USER_USB_CALLBACK_EVENT_HANDLER@size,c
  3720  00236E  ECBE  F00F         	call	_USER_USB_CALLBACK_EVENT_HANDLER	;wreg free
  3721                           
  3722                           ;usb_device.c: 2337: UCONbits.SUSPND = 0;
  3723  002372  926D               	bcf	3949,1,c	;volatile
  3724                           
  3725                           ;usb_device.c: 2342: UIEbits.ACTVIE = 0;
  3726  002374  9469               	bcf	3945,2,c	;volatile
  3727                           
  3728                           ;usb_device.c: 2360: while(UIRbits.ACTVIF)
  3729  002376  D001               	goto	i2l3472
  3730  002378                     i2l3470:
  3731                           
  3732                           ;usb_device.c: 2362: {
  3733                           ;usb_device.c: 2363: (UIR &= 0xFB);
  3734  002378  9468               	bcf	3944,2,c	;volatile
  3735  00237A                     i2l3472:
  3736  00237A  B468               	btfsc	3944,2,c	;volatile
  3737  00237C  D7FD               	goto	i2l3470
  3738                           
  3739                           ;usb_device.c: 2364: }
  3740                           ;usb_device.c: 2366: USBTicksSinceSuspendEnd = 0;
  3741  00237E  0E00               	movlw	0
  3742  002380  6E48               	movwf	_USBTicksSinceSuspendEnd,c	;volatile
  3743  002382  0012               	return	
  3744  002384                     __end_of_USBWakeFromSuspend:
  3745                           	opt stack 0
  3746                           pclatu	equ	0xFFB
  3747                           pclath	equ	0xFFA
  3748                           tblptru	equ	0xFF8
  3749                           tblptrh	equ	0xFF7
  3750                           tblptrl	equ	0xFF6
  3751                           tablat	equ	0xFF5
  3752                           prodh	equ	0xFF4
  3753                           prodl	equ	0xFF3
  3754                           intcon	equ	0xFF2
  3755                           postinc0	equ	0xFEE
  3756                           fsr0h	equ	0xFEA
  3757                           fsr0l	equ	0xFE9
  3758                           wreg	equ	0xFE8
  3759                           fsr1h	equ	0xFE2
  3760                           fsr1l	equ	0xFE1
  3761                           indf2	equ	0xFDF
  3762                           postinc2	equ	0xFDE
  3763                           postdec2	equ	0xFDD
  3764                           plusw2	equ	0xFDB
  3765                           fsr2h	equ	0xFDA
  3766                           fsr2l	equ	0xFD9
  3767                           status	equ	0xFD8
  3768                           
  3769 ;; *************** function _USBSuspend *****************
  3770 ;; Defined at:
  3771 ;;		line 2264 in file "../src/usb_device.c"
  3772 ;; Parameters:    Size  Location     Type
  3773 ;;		None
  3774 ;; Auto vars:     Size  Location     Type
  3775 ;;		None
  3776 ;; Return value:  Size  Location     Type
  3777 ;;		None               void
  3778 ;; Registers used:
  3779 ;;		wreg, fsr2l, fsr2h, status,2, status,0, prodl, prodh, cstack
  3780 ;; Tracked objects:
  3781 ;;		On entry : 0/0
  3782 ;;		On exit  : 0/0
  3783 ;;		Unchanged: 0/0
  3784 ;; Data sizes:     COMRAM   BANK0   BANK1   BANK2   BANK3   BANK4   BANK5   BANK6   BANK7
  3785 ;;      Params:         0       0       0       0       0       0       0       0       0
  3786 ;;      Locals:         0       0       0       0       0       0       0       0       0
  3787 ;;      Temps:          0       0       0       0       0       0       0       0       0
  3788 ;;      Totals:         0       0       0       0       0       0       0       0       0
  3789 ;;Total ram usage:        0 bytes
  3790 ;; Hardware stack levels used:    1
  3791 ;; Hardware stack levels required when called:    4
  3792 ;; This function calls:
  3793 ;;		_USER_USB_CALLBACK_EVENT_HANDLER
  3794 ;; This function is called by:
  3795 ;;		_USBDeviceTasks
  3796 ;; This function uses a non-reentrant model
  3797 ;;
  3798                           
  3799                           	psect	text18
  3800  0023B2                     __ptext18:
  3801                           	opt stack 0
  3802  0023B2                     _USBSuspend:
  3803                           	opt stack 22
  3804                           
  3805                           ;usb_device.c: 2289: UIEbits.ACTVIE = 1;
  3806                           
  3807                           ;incstack = 0
  3808  0023B2  8469               	bsf	3945,2,c	;volatile
  3809                           
  3810                           ;usb_device.c: 2290: (UIR &= 0xEF);
  3811  0023B4  9868               	bcf	3944,4,c	;volatile
  3812                           
  3813                           ;usb_device.c: 2293: UCONbits.SUSPND = 1;
  3814  0023B6  826D               	bsf	3949,1,c	;volatile
  3815                           
  3816                           ;usb_device.c: 2296: USBBusIsSuspended = 1;
  3817  0023B8  0E01               	movlw	1
  3818  0023BA  6E41               	movwf	_USBBusIsSuspended,c	;volatile
  3819                           
  3820                           ;usb_device.c: 2297: USBTicksSinceSuspendEnd = 0;
  3821  0023BC  0E00               	movlw	0
  3822  0023BE  6E48               	movwf	_USBTicksSinceSuspendEnd,c	;volatile
  3823                           
  3824                           ;usb_device.c: 2304: USER_USB_CALLBACK_EVENT_HANDLER(EVENT_SUSPEND,0,0);
  3825  0023C0  0E00               	movlw	0
  3826  0023C2  6E10               	movwf	USER_USB_CALLBACK_EVENT_HANDLER@event+1,c
  3827  0023C4  0E75               	movlw	117
  3828  0023C6  6E0F               	movwf	USER_USB_CALLBACK_EVENT_HANDLER@event,c
  3829  0023C8  0E00               	movlw	0
  3830  0023CA  6E12               	movwf	USER_USB_CALLBACK_EVENT_HANDLER@pdata+1,c
  3831  0023CC  0E00               	movlw	0
  3832  0023CE  6E11               	movwf	USER_USB_CALLBACK_EVENT_HANDLER@pdata,c
  3833  0023D0  0E00               	movlw	0
  3834  0023D2  6E14               	movwf	USER_USB_CALLBACK_EVENT_HANDLER@size+1,c
  3835  0023D4  0E00               	movlw	0
  3836  0023D6  6E13               	movwf	USER_USB_CALLBACK_EVENT_HANDLER@size,c
  3837  0023D8  ECBE  F00F         	call	_USER_USB_CALLBACK_EVENT_HANDLER	;wreg free
  3838  0023DC  0012               	return	
  3839  0023DE                     __end_of_USBSuspend:
  3840                           	opt stack 0
  3841                           pclatu	equ	0xFFB
  3842                           pclath	equ	0xFFA
  3843                           tblptru	equ	0xFF8
  3844                           tblptrh	equ	0xFF7
  3845                           tblptrl	equ	0xFF6
  3846                           tablat	equ	0xFF5
  3847                           prodh	equ	0xFF4
  3848                           prodl	equ	0xFF3
  3849                           intcon	equ	0xFF2
  3850                           postinc0	equ	0xFEE
  3851                           fsr0h	equ	0xFEA
  3852                           fsr0l	equ	0xFE9
  3853                           wreg	equ	0xFE8
  3854                           fsr1h	equ	0xFE2
  3855                           fsr1l	equ	0xFE1
  3856                           indf2	equ	0xFDF
  3857                           postinc2	equ	0xFDE
  3858                           postdec2	equ	0xFDD
  3859                           plusw2	equ	0xFDB
  3860                           fsr2h	equ	0xFDA
  3861                           fsr2l	equ	0xFD9
  3862                           status	equ	0xFD8
  3863                           
  3864 ;; *************** function _USBStallHandler *****************
  3865 ;; Defined at:
  3866 ;;		line 2221 in file "../src/usb_device.c"
  3867 ;; Parameters:    Size  Location     Type
  3868 ;;		None
  3869 ;; Auto vars:     Size  Location     Type
  3870 ;;		None
  3871 ;; Return value:  Size  Location     Type
  3872 ;;		None               void
  3873 ;; Registers used:
  3874 ;;		wreg, fsr2l, fsr2h, status,2, status,0
  3875 ;; Tracked objects:
  3876 ;;		On entry : 0/0
  3877 ;;		On exit  : 0/0
  3878 ;;		Unchanged: 0/0
  3879 ;; Data sizes:     COMRAM   BANK0   BANK1   BANK2   BANK3   BANK4   BANK5   BANK6   BANK7
  3880 ;;      Params:         0       0       0       0       0       0       0       0       0
  3881 ;;      Locals:         0       0       0       0       0       0       0       0       0
  3882 ;;      Temps:          0       0       0       0       0       0       0       0       0
  3883 ;;      Totals:         0       0       0       0       0       0       0       0       0
  3884 ;;Total ram usage:        0 bytes
  3885 ;; Hardware stack levels used:    1
  3886 ;; This function calls:
  3887 ;;		Nothing
  3888 ;; This function is called by:
  3889 ;;		_USBDeviceTasks
  3890 ;; This function uses a non-reentrant model
  3891 ;;
  3892                           
  3893                           	psect	text19
  3894  002158                     __ptext19:
  3895                           	opt stack 0
  3896  002158                     _USBStallHandler:
  3897                           	opt stack 26
  3898                           
  3899                           ;usb_device.c: 2233: if(UEP0bits.EPSTALL == 1)
  3900                           
  3901                           ;incstack = 0
  3902  002158  A070               	btfss	3952,0,c	;volatile
  3903  00215A  D01B               	goto	i2l572
  3904                           
  3905                           ;usb_device.c: 2234: {
  3906                           ;usb_device.c: 2236: if((pBDTEntryEP0OutCurrent->STAT.Val == 0x80) && (pBDTEntryIn[0]->S
      +                          TAT.Val == (0x80|0x04)))
  3907  00215C  0E80               	movlw	128
  3908  00215E  C039  FFD9         	movff	_pBDTEntryEP0OutCurrent,fsr2l
  3909  002162  C03A  FFDA         	movff	_pBDTEntryEP0OutCurrent+1,fsr2h
  3910  002166  62DF               	cpfseq	indf2,c
  3911  002168  D013               	goto	i2l3508
  3912  00216A  0E84               	movlw	132
  3913  00216C  C068  FFD9         	movff	_pBDTEntryIn,fsr2l
  3914  002170  C069  FFDA         	movff	_pBDTEntryIn+1,fsr2h
  3915  002174  62DF               	cpfseq	indf2,c
  3916  002176  D00C               	goto	i2l3508
  3917                           
  3918                           ;usb_device.c: 2237: {
  3919                           ;usb_device.c: 2239: pBDTEntryEP0OutCurrent->STAT.Val = 0x00|(0x08 & 0x08)|0x04;
  3920  002178  C039  FFD9         	movff	_pBDTEntryEP0OutCurrent,fsr2l
  3921  00217C  C03A  FFDA         	movff	_pBDTEntryEP0OutCurrent+1,fsr2h
  3922  002180  0E0C               	movlw	12
  3923  002182  6EDF               	movwf	indf2,c
  3924                           
  3925                           ;usb_device.c: 2240: pBDTEntryEP0OutCurrent->STAT.Val |= 0x80;
  3926  002184  C039  FFD9         	movff	_pBDTEntryEP0OutCurrent,fsr2l
  3927  002188  C03A  FFDA         	movff	_pBDTEntryEP0OutCurrent+1,fsr2h
  3928  00218C  0E00               	movlw	0
  3929  00218E  8EDB               	bsf	plusw2,7,c
  3930  002190                     i2l3508:
  3931                           
  3932                           ;usb_device.c: 2241: }
  3933                           ;usb_device.c: 2242: UEP0bits.EPSTALL = 0;
  3934  002190  9070               	bcf	3952,0,c	;volatile
  3935  002192                     i2l572:
  3936                           
  3937                           ;usb_device.c: 2243: }
  3938                           ;usb_device.c: 2245: (UIR &= 0xDF);
  3939  002192  9A68               	bcf	3944,5,c	;volatile
  3940  002194  0012               	return	
  3941  002196                     __end_of_USBStallHandler:
  3942                           	opt stack 0
  3943                           pclatu	equ	0xFFB
  3944                           pclath	equ	0xFFA
  3945                           tblptru	equ	0xFF8
  3946                           tblptrh	equ	0xFF7
  3947                           tblptrl	equ	0xFF6
  3948                           tablat	equ	0xFF5
  3949                           prodh	equ	0xFF4
  3950                           prodl	equ	0xFF3
  3951                           intcon	equ	0xFF2
  3952                           postinc0	equ	0xFEE
  3953                           fsr0h	equ	0xFEA
  3954                           fsr0l	equ	0xFE9
  3955                           wreg	equ	0xFE8
  3956                           fsr1h	equ	0xFE2
  3957                           fsr1l	equ	0xFE1
  3958                           indf2	equ	0xFDF
  3959                           postinc2	equ	0xFDE
  3960                           postdec2	equ	0xFDD
  3961                           plusw2	equ	0xFDB
  3962                           fsr2h	equ	0xFDA
  3963                           fsr2l	equ	0xFD9
  3964                           status	equ	0xFD8
  3965                           
  3966 ;; *************** function _USBIncrement1msInternalTimers *****************
  3967 ;; Defined at:
  3968 ;;		line 3050 in file "../src/usb_device.c"
  3969 ;; Parameters:    Size  Location     Type
  3970 ;;		None
  3971 ;; Auto vars:     Size  Location     Type
  3972 ;;		None
  3973 ;; Return value:  Size  Location     Type
  3974 ;;		None               void
  3975 ;; Registers used:
  3976 ;;		wreg, status,2, status,0
  3977 ;; Tracked objects:
  3978 ;;		On entry : 0/0
  3979 ;;		On exit  : 0/0
  3980 ;;		Unchanged: 0/0
  3981 ;; Data sizes:     COMRAM   BANK0   BANK1   BANK2   BANK3   BANK4   BANK5   BANK6   BANK7
  3982 ;;      Params:         0       0       0       0       0       0       0       0       0
  3983 ;;      Locals:         0       0       0       0       0       0       0       0       0
  3984 ;;      Temps:          0       0       0       0       0       0       0       0       0
  3985 ;;      Totals:         0       0       0       0       0       0       0       0       0
  3986 ;;Total ram usage:        0 bytes
  3987 ;; Hardware stack levels used:    1
  3988 ;; This function calls:
  3989 ;;		Nothing
  3990 ;; This function is called by:
  3991 ;;		_USBDeviceTasks
  3992 ;; This function uses a non-reentrant model
  3993 ;;
  3994                           
  3995                           	psect	text20
  3996  002490                     __ptext20:
  3997                           	opt stack 0
  3998  002490                     _USBIncrement1msInternalTimers:
  3999                           	opt stack 26
  4000                           
  4001                           ;usb_device.c: 3058: USB1msTickCount++;
  4002                           
  4003                           ;incstack = 0
  4004  002490  0E01               	movlw	1
  4005  002492  2633               	addwf	_USB1msTickCount,f,c	;volatile
  4006  002494  0E00               	movlw	0
  4007  002496  2234               	addwfc	_USB1msTickCount+1,f,c	;volatile
  4008  002498  2235               	addwfc	_USB1msTickCount+2,f,c	;volatile
  4009  00249A  2236               	addwfc	_USB1msTickCount+3,f,c	;volatile
  4010                           
  4011                           ;usb_device.c: 3059: if(USBBusIsSuspended == 0)
  4012  00249C  6641               	tstfsz	_USBBusIsSuspended,c	;volatile
  4013  00249E  D004               	goto	i2l666
  4014                           
  4015                           ;usb_device.c: 3060: {
  4016                           ;usb_device.c: 3061: USBTicksSinceSuspendEnd++;
  4017  0024A0  2A48               	incf	_USBTicksSinceSuspendEnd,f,c	;volatile
  4018                           
  4019                           ;usb_device.c: 3063: if(USBTicksSinceSuspendEnd == 0)
  4020  0024A2  6648               	tstfsz	_USBTicksSinceSuspendEnd,c	;volatile
  4021  0024A4  D001               	goto	i2l666
  4022                           
  4023                           ;usb_device.c: 3064: {
  4024                           ;usb_device.c: 3065: USBTicksSinceSuspendEnd = 255;
  4025  0024A6  6848               	setf	_USBTicksSinceSuspendEnd,c	;volatile
  4026  0024A8                     i2l666:
  4027  0024A8  0012               	return	
  4028  0024AA                     __end_of_USBIncrement1msInternalTimers:
  4029                           	opt stack 0
  4030                           pclatu	equ	0xFFB
  4031                           pclath	equ	0xFFA
  4032                           tblptru	equ	0xFF8
  4033                           tblptrh	equ	0xFF7
  4034                           tblptrl	equ	0xFF6
  4035                           tablat	equ	0xFF5
  4036                           prodh	equ	0xFF4
  4037                           prodl	equ	0xFF3
  4038                           intcon	equ	0xFF2
  4039                           postinc0	equ	0xFEE
  4040                           fsr0h	equ	0xFEA
  4041                           fsr0l	equ	0xFE9
  4042                           wreg	equ	0xFE8
  4043                           fsr1h	equ	0xFE2
  4044                           fsr1l	equ	0xFE1
  4045                           indf2	equ	0xFDF
  4046                           postinc2	equ	0xFDE
  4047                           postdec2	equ	0xFDD
  4048                           plusw2	equ	0xFDB
  4049                           fsr2h	equ	0xFDA
  4050                           fsr2l	equ	0xFD9
  4051                           status	equ	0xFD8
  4052                           
  4053 ;; *************** function _USBCtrlEPService *****************
  4054 ;; Defined at:
  4055 ;;		line 2391 in file "../src/usb_device.c"
  4056 ;; Parameters:    Size  Location     Type
  4057 ;;		None
  4058 ;; Auto vars:     Size  Location     Type
  4059 ;;  setup_cnt       1   34[COMRAM] unsigned char 
  4060 ;; Return value:  Size  Location     Type
  4061 ;;		None               void
  4062 ;; Registers used:
  4063 ;;		wreg, fsr0l, fsr0h, fsr1l, fsr1h, fsr2l, fsr2h, status,2, status,0, tblptrl, tblptrh, tblptru, prodl, prodh, cstack
  4064 ;; Tracked objects:
  4065 ;;		On entry : 0/0
  4066 ;;		On exit  : 0/0
  4067 ;;		Unchanged: 0/0
  4068 ;; Data sizes:     COMRAM   BANK0   BANK1   BANK2   BANK3   BANK4   BANK5   BANK6   BANK7
  4069 ;;      Params:         0       0       0       0       0       0       0       0       0
  4070 ;;      Locals:         1       0       0       0       0       0       0       0       0
  4071 ;;      Temps:          2       0       0       0       0       0       0       0       0
  4072 ;;      Totals:         3       0       0       0       0       0       0       0       0
  4073 ;;Total ram usage:        3 bytes
  4074 ;; Hardware stack levels used:    1
  4075 ;; Hardware stack levels required when called:    7
  4076 ;; This function calls:
  4077 ;;		_USBCtrlTrfInHandler
  4078 ;;		_USBCtrlTrfOutHandler
  4079 ;;		_USBCtrlTrfSetupHandler
  4080 ;; This function is called by:
  4081 ;;		_USBDeviceTasks
  4082 ;; This function uses a non-reentrant model
  4083 ;;
  4084                           
  4085                           	psect	text21
  4086  001954                     __ptext21:
  4087                           	opt stack 0
  4088  001954                     _USBCtrlEPService:
  4089                           	opt stack 19
  4090                           
  4091                           ;usb_device.c: 2397: USBStatusStageTimeoutCounter = (uint8_t)45;
  4092                           
  4093                           ;incstack = 0
  4094  001954  0E2D               	movlw	45
  4095  001956  6E47               	movwf	_USBStatusStageTimeoutCounter,c	;volatile
  4096                           
  4097                           ;usb_device.c: 2401: if((USTATcopy.Val & ~0x02) == 0x00)
  4098  001958  C04E  F021         	movff	_USTATcopy,??_USBCtrlEPService	;volatile
  4099  00195C  0EFD               	movlw	253
  4100  00195E  1621               	andwf	??_USBCtrlEPService,f,c
  4101  001960  A4D8               	btfss	status,2,c
  4102  001962  D05A               	goto	i2l3542
  4103                           
  4104                           ;usb_device.c: 2402: {
  4105                           ;usb_device.c: 2405: pBDTEntryEP0OutCurrent = (volatile BDT_ENTRY*)&BDT[(USTATcopy.Val &
      +                           0x7E)>>1];
  4106  001964  C04E  F021         	movff	_USTATcopy,??_USBCtrlEPService	;volatile
  4107  001968  90D8               	bcf	status,0,c
  4108  00196A  3221               	rrcf	??_USBCtrlEPService,f,c
  4109  00196C  0E3F               	movlw	63
  4110  00196E  1621               	andwf	??_USBCtrlEPService,f,c
  4111  001970  5021               	movf	??_USBCtrlEPService,w,c
  4112  001972  0D04               	mullw	4
  4113  001974  0104               	movlb	4	; () banked
  4114  001976  0E00               	movlw	0	;volatile
  4115  001978  24F3               	addwf	prodl,w,c
  4116  00197A  6E39               	movwf	_pBDTEntryEP0OutCurrent,c
  4117  00197C  0104               	movlb	4	; () banked
  4118  00197E  0E04               	movlw	4	;volatile
  4119  001980  20F4               	addwfc	prodh,w,c
  4120  001982  6E3A               	movwf	_pBDTEntryEP0OutCurrent+1,c
  4121                           
  4122                           ; BSR set to: 4
  4123                           ;usb_device.c: 2413: pBDTEntryEP0OutNext = pBDTEntryEP0OutCurrent;
  4124  001984  C03A  F03C         	movff	_pBDTEntryEP0OutCurrent+1,_pBDTEntryEP0OutNext+1
  4125  001988  C039  F03B         	movff	_pBDTEntryEP0OutCurrent,_pBDTEntryEP0OutNext
  4126                           
  4127                           ; BSR set to: 4
  4128                           ;usb_device.c: 2415: ((uint8_t_VAL*)&pBDTEntryEP0OutNext)->Val ^= 0x0004;
  4129  00198C  0E04               	movlw	4
  4130  00198E  1A3B               	xorwf	_pBDTEntryEP0OutNext,f,c
  4131                           
  4132                           ; BSR set to: 4
  4133                           ;usb_device.c: 2418: if(pBDTEntryEP0OutCurrent->STAT.PID == 0xD)
  4134  001990  C039  FFD9         	movff	_pBDTEntryEP0OutCurrent,fsr2l
  4135  001994  C03A  FFDA         	movff	_pBDTEntryEP0OutCurrent+1,fsr2h
  4136  001998  30DF               	rrcf	indf2,w,c
  4137  00199A  32E8               	rrcf	wreg,f,c
  4138  00199C  0B0F               	andlw	15
  4139  00199E  0A0D               	xorlw	13
  4140  0019A0  A4D8               	btfss	status,2,c
  4141  0019A2  D037               	goto	i2l3540
  4142                           
  4143                           ; BSR set to: 4
  4144                           ;usb_device.c: 2419: {
  4145                           ;usb_device.c: 2420: unsigned char setup_cnt;
  4146                           ;usb_device.c: 2426: for(setup_cnt = 0; setup_cnt < 8u; setup_cnt++)
  4147  0019A4  0E00               	movlw	0
  4148  0019A6  6E23               	movwf	USBCtrlEPService@setup_cnt,c
  4149  0019A8  D024               	goto	L12
  4150  0019AA                     i2l3528:
  4151                           
  4152                           ; BSR set to: 4
  4153                           ;usb_device.c: 2427: {
  4154                           ;usb_device.c: 2428: *(uint8_t*)((uint8_t*)&SetupPkt + setup_cnt) = *(uint8_t*)((void *)
      +                          (pBDTEntryEP0OutCurrent->ADR));
  4155  0019AA  EE20 F002          	lfsr	2,2
  4156  0019AE  5039               	movf	_pBDTEntryEP0OutCurrent,w,c
  4157  0019B0  26D9               	addwf	fsr2l,f,c
  4158  0019B2  503A               	movf	_pBDTEntryEP0OutCurrent+1,w,c
  4159  0019B4  22DA               	addwfc	fsr2h,f,c
  4160  0019B6  CFDE F021          	movff	postinc2,??_USBCtrlEPService
  4161  0019BA  CFDD F022          	movff	postdec2,??_USBCtrlEPService+1
  4162  0019BE  C021  FFD9         	movff	??_USBCtrlEPService,fsr2l
  4163  0019C2  C022  FFDA         	movff	??_USBCtrlEPService+1,fsr2h
  4164  0019C6  5023               	movf	USBCtrlEPService@setup_cnt,w,c
  4165  0019C8  0D01               	mullw	1
  4166  0019CA  0104               	movlb	4	; () banked
  4167  0019CC  0E20               	movlw	32	;volatile
  4168  0019CE  24F3               	addwf	prodl,w,c
  4169  0019D0  6EE1               	movwf	fsr1l,c
  4170  0019D2  0104               	movlb	4	; () banked
  4171  0019D4  0E04               	movlw	4	;volatile
  4172  0019D6  20F4               	addwfc	prodh,w,c
  4173  0019D8  6EE2               	movwf	fsr1h,c
  4174  0019DA  CFDF FFE7          	movff	indf2,indf1
  4175                           
  4176                           ; BSR set to: 4
  4177                           ;usb_device.c: 2429: pBDTEntryEP0OutCurrent->ADR++;
  4178  0019DE  EE20 F002          	lfsr	2,2
  4179  0019E2  5039               	movf	_pBDTEntryEP0OutCurrent,w,c
  4180  0019E4  26D9               	addwf	fsr2l,f,c
  4181  0019E6  503A               	movf	_pBDTEntryEP0OutCurrent+1,w,c
  4182  0019E8  22DA               	addwfc	fsr2h,f,c
  4183  0019EA  2ADE               	incf	postinc2,f,c
  4184  0019EC  0E00               	movlw	0
  4185  0019EE  22DD               	addwfc	postdec2,f,c
  4186                           
  4187                           ; BSR set to: 4
  4188  0019F0  2A23               	incf	USBCtrlEPService@setup_cnt,f,c
  4189  0019F2                     L12:
  4190                           
  4191                           ; BSR set to: 4
  4192  0019F2  0E07               	movlw	7
  4193  0019F4  6423               	cpfsgt	USBCtrlEPService@setup_cnt,c
  4194  0019F6  D7D9               	goto	i2l3528
  4195                           
  4196                           ; BSR set to: 4
  4197                           ;usb_device.c: 2430: }
  4198                           ;usb_device.c: 2431: pBDTEntryEP0OutCurrent->ADR = ((uint16_t)(&SetupPkt));
  4199                           
  4200                           ; BSR set to: 4
  4201  0019F8  EE20 F002          	lfsr	2,2
  4202  0019FC  5039               	movf	_pBDTEntryEP0OutCurrent,w,c
  4203  0019FE  26D9               	addwf	fsr2l,f,c
  4204  001A00  503A               	movf	_pBDTEntryEP0OutCurrent+1,w,c
  4205  001A02  22DA               	addwfc	fsr2h,f,c
  4206  001A04  0E20               	movlw	32
  4207  001A06  6EDE               	movwf	postinc2,c
  4208  001A08  0E04               	movlw	4
  4209  001A0A  6EDD               	movwf	postdec2,c
  4210                           
  4211                           ; BSR set to: 4
  4212                           ;usb_device.c: 2434: USBCtrlTrfSetupHandler();
  4213  001A0C  EC35  F00F         	call	_USBCtrlTrfSetupHandler	;wreg free
  4214                           
  4215                           ;usb_device.c: 2435: }
  4216  001A10  D00C               	goto	i2l593
  4217  001A12                     i2l3540:
  4218                           
  4219                           ;usb_device.c: 2436: else
  4220                           ;usb_device.c: 2437: {
  4221                           ;usb_device.c: 2439: USBCtrlTrfOutHandler();
  4222  001A12  EC5B  F010         	call	_USBCtrlTrfOutHandler	;wreg free
  4223  001A16  D009               	goto	i2l593
  4224  001A18                     i2l3542:
  4225                           
  4226                           ;usb_device.c: 2442: else if((USTATcopy.Val & ~0x02) == 0x04)
  4227  001A18  C04E  F021         	movff	_USTATcopy,??_USBCtrlEPService	;volatile
  4228  001A1C  0EFD               	movlw	253
  4229  001A1E  1621               	andwf	??_USBCtrlEPService,f,c
  4230  001A20  5021               	movf	??_USBCtrlEPService,w,c
  4231  001A22  0A04               	xorlw	4
  4232  001A24  B4D8               	btfsc	status,2,c
  4233                           
  4234                           ;usb_device.c: 2443: {
  4235                           ;usb_device.c: 2446: USBCtrlTrfInHandler();
  4236  001A26  EC42  F00E         	call	_USBCtrlTrfInHandler	;wreg free
  4237  001A2A                     i2l593:
  4238  001A2A  0012               	return	
  4239  001A2C                     __end_of_USBCtrlEPService:
  4240                           	opt stack 0
  4241                           pclatu	equ	0xFFB
  4242                           pclath	equ	0xFFA
  4243                           tblptru	equ	0xFF8
  4244                           tblptrh	equ	0xFF7
  4245                           tblptrl	equ	0xFF6
  4246                           tablat	equ	0xFF5
  4247                           prodh	equ	0xFF4
  4248                           prodl	equ	0xFF3
  4249                           intcon	equ	0xFF2
  4250                           postinc0	equ	0xFEE
  4251                           fsr0h	equ	0xFEA
  4252                           fsr0l	equ	0xFE9
  4253                           wreg	equ	0xFE8
  4254                           indf1	equ	0xFE7
  4255                           fsr1h	equ	0xFE2
  4256                           fsr1l	equ	0xFE1
  4257                           indf2	equ	0xFDF
  4258                           postinc2	equ	0xFDE
  4259                           postdec2	equ	0xFDD
  4260                           plusw2	equ	0xFDB
  4261                           fsr2h	equ	0xFDA
  4262                           fsr2l	equ	0xFD9
  4263                           status	equ	0xFD8
  4264                           
  4265 ;; *************** function _USBCtrlTrfSetupHandler *****************
  4266 ;; Defined at:
  4267 ;;		line 2491 in file "../src/usb_device.c"
  4268 ;; Parameters:    Size  Location     Type
  4269 ;;		None
  4270 ;; Auto vars:     Size  Location     Type
  4271 ;;		None
  4272 ;; Return value:  Size  Location     Type
  4273 ;;		None               void
  4274 ;; Registers used:
  4275 ;;		wreg, fsr0l, fsr0h, fsr2l, fsr2h, status,2, status,0, tblptrl, tblptrh, tblptru, prodl, prodh, cstack
  4276 ;; Tracked objects:
  4277 ;;		On entry : 0/0
  4278 ;;		On exit  : 0/0
  4279 ;;		Unchanged: 0/0
  4280 ;; Data sizes:     COMRAM   BANK0   BANK1   BANK2   BANK3   BANK4   BANK5   BANK6   BANK7
  4281 ;;      Params:         0       0       0       0       0       0       0       0       0
  4282 ;;      Locals:         0       0       0       0       0       0       0       0       0
  4283 ;;      Temps:          0       0       0       0       0       0       0       0       0
  4284 ;;      Totals:         0       0       0       0       0       0       0       0       0
  4285 ;;Total ram usage:        0 bytes
  4286 ;; Hardware stack levels used:    1
  4287 ;; Hardware stack levels required when called:    6
  4288 ;; This function calls:
  4289 ;;		_USBCheckStdRequest
  4290 ;;		_USBCtrlEPServiceComplete
  4291 ;;		_USER_USB_CALLBACK_EVENT_HANDLER
  4292 ;; This function is called by:
  4293 ;;		_USBCtrlEPService
  4294 ;; This function uses a non-reentrant model
  4295 ;;
  4296                           
  4297                           	psect	text22
  4298  001E6A                     __ptext22:
  4299                           	opt stack 0
  4300  001E6A                     _USBCtrlTrfSetupHandler:
  4301                           	opt stack 19
  4302                           
  4303                           ;usb_device.c: 2496: shortPacketStatus = 0;
  4304                           
  4305                           ;incstack = 0
  4306  001E6A  0E00               	movlw	0
  4307  001E6C  6E4B               	movwf	_shortPacketStatus,c	;volatile
  4308                           
  4309                           ;usb_device.c: 2497: USBDeferStatusStagePacket = 0;
  4310  001E6E  0E00               	movlw	0
  4311  001E70  6E44               	movwf	_USBDeferStatusStagePacket,c	;volatile
  4312                           
  4313                           ;usb_device.c: 2498: USBDeferINDataStagePackets = 0;
  4314  001E72  0E00               	movlw	0
  4315  001E74  6E42               	movwf	_USBDeferINDataStagePackets,c	;volatile
  4316                           
  4317                           ;usb_device.c: 2499: USBDeferOUTDataStagePackets = 0;
  4318  001E76  0E00               	movlw	0
  4319  001E78  6E43               	movwf	_USBDeferOUTDataStagePackets,c	;volatile
  4320                           
  4321                           ;usb_device.c: 2500: BothEP0OutUOWNsSet = 0;
  4322  001E7A  0E00               	movlw	0
  4323  001E7C  6E3F               	movwf	_BothEP0OutUOWNsSet,c	;volatile
  4324                           
  4325                           ;usb_device.c: 2501: controlTransferState = 0;
  4326  001E7E  0E00               	movlw	0
  4327  001E80  6E49               	movwf	_controlTransferState,c	;volatile
  4328                           
  4329                           ;usb_device.c: 2510: pBDTEntryIn[0]->STAT.Val &= ~(0x80);
  4330  001E82  C068  FFD9         	movff	_pBDTEntryIn,fsr2l
  4331  001E86  C069  FFDA         	movff	_pBDTEntryIn+1,fsr2h
  4332  001E8A  0E7F               	movlw	127
  4333  001E8C  16DF               	andwf	indf2,f,c
  4334                           
  4335                           ;usb_device.c: 2511: ((uint8_t_VAL*)&pBDTEntryIn[0])->Val ^= 0x0004;
  4336  001E8E  0E04               	movlw	4
  4337  001E90  0100               	movlb	0	; () banked
  4338  001E92  1B68               	xorwf	_pBDTEntryIn& (0+255),f,b
  4339                           
  4340                           ; BSR set to: 0
  4341                           ;usb_device.c: 2512: pBDTEntryIn[0]->STAT.Val &= ~(0x80);
  4342  001E94  C068  FFD9         	movff	_pBDTEntryIn,fsr2l
  4343  001E98  C069  FFDA         	movff	_pBDTEntryIn+1,fsr2h
  4344  001E9C  0E7F               	movlw	127
  4345  001E9E  16DF               	andwf	indf2,f,c
  4346                           
  4347                           ; BSR set to: 0
  4348                           ;usb_device.c: 2513: ((uint8_t_VAL*)&pBDTEntryIn[0])->Val ^= 0x0004;
  4349  001EA0  0E04               	movlw	4
  4350  001EA2  0100               	movlb	0	; () banked
  4351  001EA4  1B68               	xorwf	_pBDTEntryIn& (0+255),f,b
  4352                           
  4353                           ; BSR set to: 0
  4354                           ;usb_device.c: 2514: pBDTEntryEP0OutNext->STAT.Val &= ~(0x80);
  4355  001EA6  C03B  FFD9         	movff	_pBDTEntryEP0OutNext,fsr2l
  4356  001EAA  C03C  FFDA         	movff	_pBDTEntryEP0OutNext+1,fsr2h
  4357  001EAE  0E7F               	movlw	127
  4358  001EB0  16DF               	andwf	indf2,f,c
  4359                           
  4360                           ; BSR set to: 0
  4361                           ;usb_device.c: 2516: inPipes[0].info.Val = 0;
  4362  001EB2  0E00               	movlw	0
  4363  001EB4  0100               	movlb	0	; () banked
  4364  001EB6  6F7C               	movwf	(_inPipes+3)& (0+255),b	;volatile
  4365                           
  4366                           ; BSR set to: 0
  4367                           ;usb_device.c: 2517: inPipes[0].wCount.Val = 0;
  4368  001EB8  0E00               	movlw	0
  4369  001EBA  0100               	movlb	0	; () banked
  4370  001EBC  6F7E               	movwf	(_inPipes+5)& (0+255),b	;volatile
  4371  001EBE  0E00               	movlw	0
  4372  001EC0  0100               	movlb	0	; () banked
  4373  001EC2  6F7D               	movwf	(_inPipes+4)& (0+255),b	;volatile
  4374                           
  4375                           ; BSR set to: 0
  4376                           ;usb_device.c: 2518: outPipes[0].info.Val = 0;
  4377  001EC4  0E00               	movlw	0
  4378  001EC6  0100               	movlb	0	; () banked
  4379  001EC8  6F63               	movwf	(_outPipes+3)& (0+255),b	;volatile
  4380                           
  4381                           ; BSR set to: 0
  4382                           ;usb_device.c: 2519: outPipes[0].wCount.Val = 0;
  4383  001ECA  0E00               	movlw	0
  4384  001ECC  0100               	movlb	0	; () banked
  4385  001ECE  6F65               	movwf	(_outPipes+5)& (0+255),b	;volatile
  4386  001ED0  0E00               	movlw	0
  4387  001ED2  0100               	movlb	0	; () banked
  4388  001ED4  6F64               	movwf	(_outPipes+4)& (0+255),b	;volatile
  4389                           
  4390                           ; BSR set to: 0
  4391                           ;usb_device.c: 2525: USBCheckStdRequest();
  4392  001ED6  ECC2  F00B         	call	_USBCheckStdRequest	;wreg free
  4393                           
  4394                           ;usb_device.c: 2526: USER_USB_CALLBACK_EVENT_HANDLER(EVENT_EP0_REQUEST,0,0);
  4395  001EDA  0E00               	movlw	0
  4396  001EDC  6E10               	movwf	USER_USB_CALLBACK_EVENT_HANDLER@event+1,c
  4397  001EDE  0E03               	movlw	3
  4398  001EE0  6E0F               	movwf	USER_USB_CALLBACK_EVENT_HANDLER@event,c
  4399  001EE2  0E00               	movlw	0
  4400  001EE4  6E12               	movwf	USER_USB_CALLBACK_EVENT_HANDLER@pdata+1,c
  4401  001EE6  0E00               	movlw	0
  4402  001EE8  6E11               	movwf	USER_USB_CALLBACK_EVENT_HANDLER@pdata,c
  4403  001EEA  0E00               	movlw	0
  4404  001EEC  6E14               	movwf	USER_USB_CALLBACK_EVENT_HANDLER@size+1,c
  4405  001EEE  0E00               	movlw	0
  4406  001EF0  6E13               	movwf	USER_USB_CALLBACK_EVENT_HANDLER@size,c
  4407  001EF2  ECBE  F00F         	call	_USER_USB_CALLBACK_EVENT_HANDLER	;wreg free
  4408                           
  4409                           ;usb_device.c: 2539: USBCtrlEPServiceComplete();
  4410  001EF6  EC4A  F00B         	call	_USBCtrlEPServiceComplete	;wreg free
  4411  001EFA  0012               	return	
  4412  001EFC                     __end_of_USBCtrlTrfSetupHandler:
  4413                           	opt stack 0
  4414                           pclatu	equ	0xFFB
  4415                           pclath	equ	0xFFA
  4416                           tblptru	equ	0xFF8
  4417                           tblptrh	equ	0xFF7
  4418                           tblptrl	equ	0xFF6
  4419                           tablat	equ	0xFF5
  4420                           prodh	equ	0xFF4
  4421                           prodl	equ	0xFF3
  4422                           intcon	equ	0xFF2
  4423                           postinc0	equ	0xFEE
  4424                           fsr0h	equ	0xFEA
  4425                           fsr0l	equ	0xFE9
  4426                           wreg	equ	0xFE8
  4427                           indf1	equ	0xFE7
  4428                           fsr1h	equ	0xFE2
  4429                           fsr1l	equ	0xFE1
  4430                           indf2	equ	0xFDF
  4431                           postinc2	equ	0xFDE
  4432                           postdec2	equ	0xFDD
  4433                           plusw2	equ	0xFDB
  4434                           fsr2h	equ	0xFDA
  4435                           fsr2l	equ	0xFD9
  4436                           status	equ	0xFD8
  4437                           
  4438 ;; *************** function _USBCtrlEPServiceComplete *****************
  4439 ;; Defined at:
  4440 ;;		line 1635 in file "../src/usb_device.c"
  4441 ;; Parameters:    Size  Location     Type
  4442 ;;		None
  4443 ;; Auto vars:     Size  Location     Type
  4444 ;;		None
  4445 ;; Return value:  Size  Location     Type
  4446 ;;		None               void
  4447 ;; Registers used:
  4448 ;;		wreg, fsr0l, fsr0h, fsr2l, fsr2h, status,2, status,0, tblptrl, tblptrh, tblptru, cstack
  4449 ;; Tracked objects:
  4450 ;;		On entry : 0/0
  4451 ;;		On exit  : 0/0
  4452 ;;		Unchanged: 0/0
  4453 ;; Data sizes:     COMRAM   BANK0   BANK1   BANK2   BANK3   BANK4   BANK5   BANK6   BANK7
  4454 ;;      Params:         0       0       0       0       0       0       0       0       0
  4455 ;;      Locals:         0       0       0       0       0       0       0       0       0
  4456 ;;      Temps:          0       0       0       0       0       0       0       0       0
  4457 ;;      Totals:         0       0       0       0       0       0       0       0       0
  4458 ;;Total ram usage:        0 bytes
  4459 ;; Hardware stack levels used:    1
  4460 ;; Hardware stack levels required when called:    2
  4461 ;; This function calls:
  4462 ;;		_USBCtrlEPAllowDataStage
  4463 ;;		_USBCtrlEPAllowStatusStage
  4464 ;; This function is called by:
  4465 ;;		_USBCtrlTrfSetupHandler
  4466 ;; This function uses a non-reentrant model
  4467 ;;
  4468                           
  4469                           	psect	text23
  4470  001694                     __ptext23:
  4471                           	opt stack 0
  4472  001694                     _USBCtrlEPServiceComplete:
  4473                           	opt stack 22
  4474                           
  4475                           ;usb_device.c: 1641: UCONbits.PKTDIS = 0;
  4476                           
  4477                           ;incstack = 0
  4478  001694  986D               	bcf	3949,4,c	;volatile
  4479                           
  4480                           ;usb_device.c: 1647: if(inPipes[0].info.bits.busy == 0)
  4481  001696  0100               	movlb	0	; () banked
  4482  001698  BF7C               	btfsc	(_inPipes+3)& (0+255),7,b	;volatile
  4483  00169A  D039               	goto	i2l496
  4484                           
  4485                           ; BSR set to: 0
  4486                           ;usb_device.c: 1648: {
  4487                           ;usb_device.c: 1649: if(outPipes[0].info.bits.busy == 1)
  4488  00169C  0100               	movlb	0	; () banked
  4489  00169E  AF63               	btfss	(_outPipes+3)& (0+255),7,b	;volatile
  4490  0016A0  D00B               	goto	i2l3148
  4491                           
  4492                           ; BSR set to: 0
  4493                           ;usb_device.c: 1650: {
  4494                           ;usb_device.c: 1651: controlTransferState = 2;
  4495  0016A2  0E02               	movlw	2
  4496  0016A4  6E49               	movwf	_controlTransferState,c	;volatile
  4497                           
  4498                           ; BSR set to: 0
  4499                           ;usb_device.c: 1662: if(USBDeferOUTDataStagePackets == 0)
  4500  0016A6  6643               	tstfsz	_USBDeferOUTDataStagePackets,c	;volatile
  4501  0016A8  D002               	goto	i2l3144
  4502                           
  4503                           ; BSR set to: 0
  4504                           ;usb_device.c: 1663: {
  4505                           ;usb_device.c: 1664: USBCtrlEPAllowDataStage();
  4506  0016AA  EC97  F00E         	call	_USBCtrlEPAllowDataStage	;wreg free
  4507  0016AE                     i2l3144:
  4508                           
  4509                           ;usb_device.c: 1665: }
  4510                           ;usb_device.c: 1669: USBStatusStageEnabledFlag2 = 0;
  4511  0016AE  0E00               	movlw	0
  4512  0016B0  6E46               	movwf	_USBStatusStageEnabledFlag2,c	;volatile
  4513                           
  4514                           ;usb_device.c: 1670: USBStatusStageEnabledFlag1 = 0;
  4515  0016B2  0E00               	movlw	0
  4516  0016B4  6E45               	movwf	_USBStatusStageEnabledFlag1,c	;volatile
  4517                           
  4518                           ;usb_device.c: 1671: }
  4519  0016B6  D065               	goto	i2l506
  4520  0016B8                     i2l3148:
  4521                           
  4522                           ;usb_device.c: 1672: else
  4523                           ;usb_device.c: 1673: {
  4524                           ;usb_device.c: 1678: pBDTEntryEP0OutNext->CNT = 8;
  4525  0016B8  EE20 F001          	lfsr	2,1
  4526  0016BC  503B               	movf	_pBDTEntryEP0OutNext,w,c
  4527  0016BE  26D9               	addwf	fsr2l,f,c
  4528  0016C0  503C               	movf	_pBDTEntryEP0OutNext+1,w,c
  4529  0016C2  22DA               	addwfc	fsr2h,f,c
  4530  0016C4  0E08               	movlw	8
  4531  0016C6  6EDF               	movwf	indf2,c
  4532                           
  4533                           ;usb_device.c: 1679: pBDTEntryEP0OutNext->ADR = ((uint16_t)(&SetupPkt));
  4534  0016C8  EE20 F002          	lfsr	2,2
  4535  0016CC  503B               	movf	_pBDTEntryEP0OutNext,w,c
  4536  0016CE  26D9               	addwf	fsr2l,f,c
  4537  0016D0  503C               	movf	_pBDTEntryEP0OutNext+1,w,c
  4538  0016D2  22DA               	addwfc	fsr2h,f,c
  4539  0016D4  0E20               	movlw	32
  4540  0016D6  6EDE               	movwf	postinc2,c
  4541  0016D8  0E04               	movlw	4
  4542  0016DA  6EDD               	movwf	postdec2,c
  4543                           
  4544                           ;usb_device.c: 1680: pBDTEntryEP0OutNext->STAT.Val = 0x00|(0x08 & 0x08)|0x04;
  4545  0016DC  C03B  FFD9         	movff	_pBDTEntryEP0OutNext,fsr2l
  4546  0016E0  C03C  FFDA         	movff	_pBDTEntryEP0OutNext+1,fsr2h
  4547  0016E4  0E0C               	movlw	12
  4548  0016E6  6EDF               	movwf	indf2,c
  4549                           
  4550                           ;usb_device.c: 1681: pBDTEntryEP0OutNext->STAT.Val |= 0x80;
  4551  0016E8  C03B  FFD9         	movff	_pBDTEntryEP0OutNext,fsr2l
  4552  0016EC  C03C  FFDA         	movff	_pBDTEntryEP0OutNext+1,fsr2h
  4553  0016F0  0E00               	movlw	0
  4554  0016F2  8EDB               	bsf	plusw2,7,c
  4555                           
  4556                           ;usb_device.c: 1682: pBDTEntryIn[0]->STAT.Val = 0x04;
  4557  0016F4  C068  FFD9         	movff	_pBDTEntryIn,fsr2l
  4558  0016F8  C069  FFDA         	movff	_pBDTEntryIn+1,fsr2h
  4559  0016FC  0E04               	movlw	4
  4560  0016FE  6EDF               	movwf	indf2,c
  4561                           
  4562                           ;usb_device.c: 1683: pBDTEntryIn[0]->STAT.Val |= 0x80;
  4563  001700  C068  FFD9         	movff	_pBDTEntryIn,fsr2l
  4564  001704  C069  FFDA         	movff	_pBDTEntryIn+1,fsr2h
  4565  001708  0E00               	movlw	0
  4566  00170A  8EDB               	bsf	plusw2,7,c
  4567  00170C  D03A               	goto	i2l506
  4568  00170E                     i2l496:
  4569                           
  4570                           ; BSR set to: 0
  4571                           ;usb_device.c: 1686: else
  4572                           ;usb_device.c: 1687: {
  4573                           ;usb_device.c: 1688: if(SetupPkt.DataDir == (0x80>>7))
  4574  00170E  0104               	movlb	4	; () banked
  4575  001710  AF20               	btfss	32,7,b	;volatile
  4576  001712  D00F               	goto	i2l3170
  4577                           
  4578                           ; BSR set to: 4
  4579                           ;usb_device.c: 1689: {
  4580                           ;usb_device.c: 1690: controlTransferState = 1;
  4581  001714  0E01               	movlw	1
  4582  001716  6E49               	movwf	_controlTransferState,c	;volatile
  4583                           
  4584                           ; BSR set to: 4
  4585                           ;usb_device.c: 1704: if(USBDeferINDataStagePackets == 0)
  4586  001718  6642               	tstfsz	_USBDeferINDataStagePackets,c	;volatile
  4587  00171A  D002               	goto	i2l3162
  4588                           
  4589                           ; BSR set to: 4
  4590                           ;usb_device.c: 1705: {
  4591                           ;usb_device.c: 1706: USBCtrlEPAllowDataStage();
  4592  00171C  EC97  F00E         	call	_USBCtrlEPAllowDataStage	;wreg free
  4593  001720                     i2l3162:
  4594                           
  4595                           ;usb_device.c: 1707: }
  4596                           ;usb_device.c: 1729: USBStatusStageEnabledFlag2 = 0;
  4597  001720  0E00               	movlw	0
  4598  001722  6E46               	movwf	_USBStatusStageEnabledFlag2,c	;volatile
  4599                           
  4600                           ;usb_device.c: 1730: USBStatusStageEnabledFlag1 = 0;
  4601  001724  0E00               	movlw	0
  4602  001726  6E45               	movwf	_USBStatusStageEnabledFlag1,c	;volatile
  4603                           
  4604                           ;usb_device.c: 1731: if(USBDeferStatusStagePacket == 0)
  4605  001728  6644               	tstfsz	_USBDeferStatusStagePacket,c	;volatile
  4606  00172A  D02B               	goto	i2l506
  4607                           
  4608                           ;usb_device.c: 1732: {
  4609                           ;usb_device.c: 1733: USBCtrlEPAllowStatusStage();
  4610  00172C  ECE0  F00D         	call	_USBCtrlEPAllowStatusStage	;wreg free
  4611  001730  D028               	goto	i2l506
  4612  001732                     i2l3170:
  4613                           
  4614                           ;usb_device.c: 1736: else
  4615                           ;usb_device.c: 1737: {
  4616                           ;usb_device.c: 1748: controlTransferState = 2;
  4617  001732  0E02               	movlw	2
  4618  001734  6E49               	movwf	_controlTransferState,c	;volatile
  4619                           
  4620                           ;usb_device.c: 1751: pBDTEntryEP0OutNext->CNT = 8;
  4621  001736  EE20 F001          	lfsr	2,1
  4622  00173A  503B               	movf	_pBDTEntryEP0OutNext,w,c
  4623  00173C  26D9               	addwf	fsr2l,f,c
  4624  00173E  503C               	movf	_pBDTEntryEP0OutNext+1,w,c
  4625  001740  22DA               	addwfc	fsr2h,f,c
  4626  001742  0E08               	movlw	8
  4627  001744  6EDF               	movwf	indf2,c
  4628                           
  4629                           ;usb_device.c: 1752: pBDTEntryEP0OutNext->ADR = ((uint16_t)(&SetupPkt));
  4630  001746  EE20 F002          	lfsr	2,2
  4631  00174A  503B               	movf	_pBDTEntryEP0OutNext,w,c
  4632  00174C  26D9               	addwf	fsr2l,f,c
  4633  00174E  503C               	movf	_pBDTEntryEP0OutNext+1,w,c
  4634  001750  22DA               	addwfc	fsr2h,f,c
  4635  001752  0E20               	movlw	32
  4636  001754  6EDE               	movwf	postinc2,c
  4637  001756  0E04               	movlw	4
  4638  001758  6EDD               	movwf	postdec2,c
  4639                           
  4640                           ;usb_device.c: 1753: pBDTEntryEP0OutNext->STAT.Val = 0x04;
  4641  00175A  C03B  FFD9         	movff	_pBDTEntryEP0OutNext,fsr2l
  4642  00175E  C03C  FFDA         	movff	_pBDTEntryEP0OutNext+1,fsr2h
  4643  001762  0E04               	movlw	4
  4644  001764  6EDF               	movwf	indf2,c
  4645                           
  4646                           ;usb_device.c: 1754: pBDTEntryEP0OutNext->STAT.Val |= 0x80;
  4647  001766  C03B  FFD9         	movff	_pBDTEntryEP0OutNext,fsr2l
  4648  00176A  C03C  FFDA         	movff	_pBDTEntryEP0OutNext+1,fsr2h
  4649  00176E  0E00               	movlw	0
  4650  001770  8EDB               	bsf	plusw2,7,c
  4651                           
  4652                           ;usb_device.c: 1757: USBStatusStageEnabledFlag2 = 0;
  4653  001772  0E00               	movlw	0
  4654  001774  6E46               	movwf	_USBStatusStageEnabledFlag2,c	;volatile
  4655                           
  4656                           ;usb_device.c: 1758: USBStatusStageEnabledFlag1 = 0;
  4657  001776  0E00               	movlw	0
  4658  001778  6E45               	movwf	_USBStatusStageEnabledFlag1,c	;volatile
  4659                           
  4660                           ;usb_device.c: 1759: if(USBDeferStatusStagePacket == 0)
  4661  00177A  6644               	tstfsz	_USBDeferStatusStagePacket,c	;volatile
  4662  00177C  D002               	goto	i2l506
  4663                           
  4664                           ;usb_device.c: 1760: {
  4665                           ;usb_device.c: 1761: USBCtrlEPAllowStatusStage();
  4666  00177E  ECE0  F00D         	call	_USBCtrlEPAllowStatusStage	;wreg free
  4667  001782                     i2l506:
  4668  001782  0012               	return	
  4669  001784                     __end_of_USBCtrlEPServiceComplete:
  4670                           	opt stack 0
  4671                           pclatu	equ	0xFFB
  4672                           pclath	equ	0xFFA
  4673                           tblptru	equ	0xFF8
  4674                           tblptrh	equ	0xFF7
  4675                           tblptrl	equ	0xFF6
  4676                           tablat	equ	0xFF5
  4677                           prodh	equ	0xFF4
  4678                           prodl	equ	0xFF3
  4679                           intcon	equ	0xFF2
  4680                           postinc0	equ	0xFEE
  4681                           fsr0h	equ	0xFEA
  4682                           fsr0l	equ	0xFE9
  4683                           wreg	equ	0xFE8
  4684                           indf1	equ	0xFE7
  4685                           fsr1h	equ	0xFE2
  4686                           fsr1l	equ	0xFE1
  4687                           indf2	equ	0xFDF
  4688                           postinc2	equ	0xFDE
  4689                           postdec2	equ	0xFDD
  4690                           plusw2	equ	0xFDB
  4691                           fsr2h	equ	0xFDA
  4692                           fsr2l	equ	0xFD9
  4693                           status	equ	0xFD8
  4694                           
  4695 ;; *************** function _USBCtrlEPAllowDataStage *****************
  4696 ;; Defined at:
  4697 ;;		line 1507 in file "../src/usb_device.c"
  4698 ;; Parameters:    Size  Location     Type
  4699 ;;		None
  4700 ;; Auto vars:     Size  Location     Type
  4701 ;;		None
  4702 ;; Return value:  Size  Location     Type
  4703 ;;		None               void
  4704 ;; Registers used:
  4705 ;;		wreg, fsr0l, fsr0h, fsr2l, fsr2h, status,2, status,0, tblptrl, tblptrh, tblptru, cstack
  4706 ;; Tracked objects:
  4707 ;;		On entry : 0/0
  4708 ;;		On exit  : 0/0
  4709 ;;		Unchanged: 0/0
  4710 ;; Data sizes:     COMRAM   BANK0   BANK1   BANK2   BANK3   BANK4   BANK5   BANK6   BANK7
  4711 ;;      Params:         0       0       0       0       0       0       0       0       0
  4712 ;;      Locals:         0       0       0       0       0       0       0       0       0
  4713 ;;      Temps:          0       0       0       0       0       0       0       0       0
  4714 ;;      Totals:         0       0       0       0       0       0       0       0       0
  4715 ;;Total ram usage:        0 bytes
  4716 ;; Hardware stack levels used:    1
  4717 ;; Hardware stack levels required when called:    1
  4718 ;; This function calls:
  4719 ;;		_USBCtrlTrfTxService
  4720 ;; This function is called by:
  4721 ;;		_USBCtrlEPServiceComplete
  4722 ;; This function uses a non-reentrant model
  4723 ;;
  4724                           
  4725                           	psect	text24
  4726  001D2E                     __ptext24:
  4727                           	opt stack 0
  4728  001D2E                     _USBCtrlEPAllowDataStage:
  4729                           	opt stack 22
  4730                           
  4731                           ;usb_device.c: 1509: USBDeferINDataStagePackets = 0;
  4732                           
  4733                           ;incstack = 0
  4734  001D2E  0E00               	movlw	0
  4735  001D30  6E42               	movwf	_USBDeferINDataStagePackets,c	;volatile
  4736                           
  4737                           ;usb_device.c: 1510: USBDeferOUTDataStagePackets = 0;
  4738  001D32  0E00               	movlw	0
  4739  001D34  6E43               	movwf	_USBDeferOUTDataStagePackets,c	;volatile
  4740                           
  4741                           ;usb_device.c: 1512: if(controlTransferState == 2)
  4742  001D36  5049               	movf	_controlTransferState,w,c	;volatile
  4743  001D38  0A02               	xorlw	2
  4744  001D3A  A4D8               	btfss	status,2,c
  4745  001D3C  D01D               	goto	i2l2940
  4746                           
  4747                           ;usb_device.c: 1513: {
  4748                           ;usb_device.c: 1515: pBDTEntryEP0OutNext->CNT = 8;
  4749  001D3E  EE20 F001          	lfsr	2,1
  4750  001D42  503B               	movf	_pBDTEntryEP0OutNext,w,c
  4751  001D44  26D9               	addwf	fsr2l,f,c
  4752  001D46  503C               	movf	_pBDTEntryEP0OutNext+1,w,c
  4753  001D48  22DA               	addwfc	fsr2h,f,c
  4754  001D4A  0E08               	movlw	8
  4755  001D4C  6EDF               	movwf	indf2,c
  4756                           
  4757                           ;usb_device.c: 1516: pBDTEntryEP0OutNext->ADR = ((uint16_t)(&CtrlTrfData));
  4758  001D4E  EE20 F002          	lfsr	2,2
  4759  001D52  503B               	movf	_pBDTEntryEP0OutNext,w,c
  4760  001D54  26D9               	addwf	fsr2l,f,c
  4761  001D56  503C               	movf	_pBDTEntryEP0OutNext+1,w,c
  4762  001D58  22DA               	addwfc	fsr2h,f,c
  4763  001D5A  0E28               	movlw	40
  4764  001D5C  6EDE               	movwf	postinc2,c
  4765  001D5E  0E04               	movlw	4
  4766  001D60  6EDD               	movwf	postdec2,c
  4767                           
  4768                           ;usb_device.c: 1517: pBDTEntryEP0OutNext->STAT.Val = 0x40|(0x08 & 0x08);
  4769  001D62  C03B  FFD9         	movff	_pBDTEntryEP0OutNext,fsr2l
  4770  001D66  C03C  FFDA         	movff	_pBDTEntryEP0OutNext+1,fsr2h
  4771  001D6A  0E48               	movlw	72
  4772  001D6C  6EDF               	movwf	indf2,c
  4773                           
  4774                           ;usb_device.c: 1518: pBDTEntryEP0OutNext->STAT.Val |= 0x80;
  4775  001D6E  C03B  FFD9         	movff	_pBDTEntryEP0OutNext,fsr2l
  4776  001D72  C03C  FFDA         	movff	_pBDTEntryEP0OutNext+1,fsr2h
  4777  001D76  D027               	goto	L13
  4778  001D78                     i2l2940:
  4779                           
  4780                           ;usb_device.c: 1520: else
  4781                           ;usb_device.c: 1521: {
  4782                           ;usb_device.c: 1524: if(SetupPkt.wLength < inPipes[0].wCount.Val)
  4783  001D78  0100               	movlb	0	; () banked
  4784  001D7A  517D               	movf	(_inPipes+4)& (0+255),w,b	;volatile
  4785  001D7C  0104               	movlb	4	; () banked
  4786  001D7E  5D26               	subwf	38,w,b	;volatile
  4787  001D80  0100               	movlb	0	; () banked
  4788  001D82  517E               	movf	(_inPipes+5)& (0+255),w,b	;volatile
  4789  001D84  0104               	movlb	4	; () banked
  4790  001D86  5927               	subwfb	39,w,b	;volatile
  4791  001D88  B0D8               	btfsc	status,0,c
  4792  001D8A  D004               	goto	i2l2944
  4793                           
  4794                           ; BSR set to: 4
  4795                           ;usb_device.c: 1525: {
  4796                           ;usb_device.c: 1526: inPipes[0].wCount.Val = SetupPkt.wLength;
  4797  001D8C  C426 F07D          	movff	1062,_inPipes+4	;volatile
  4798  001D90  C427 F07E          	movff	1063,_inPipes+5	;volatile
  4799  001D94                     i2l2944:
  4800                           
  4801                           ; BSR set to: 4
  4802                           ;usb_device.c: 1527: }
  4803                           ;usb_device.c: 1528: USBCtrlTrfTxService();
  4804  001D94  EC3A  F00C         	call	_USBCtrlTrfTxService	;wreg free
  4805                           
  4806                           ;usb_device.c: 1533: pBDTEntryIn[0]->ADR = ((uint16_t)(&CtrlTrfData));
  4807  001D98  0100               	movlb	0	; () banked
  4808  001D9A  EE20 F002          	lfsr	2,2
  4809  001D9E  0100               	movlb	0	; () banked
  4810  001DA0  5168               	movf	_pBDTEntryIn& (0+255),w,b
  4811  001DA2  26D9               	addwf	fsr2l,f,c
  4812  001DA4  0100               	movlb	0	; () banked
  4813  001DA6  5169               	movf	(_pBDTEntryIn+1)& (0+255),w,b
  4814  001DA8  22DA               	addwfc	fsr2h,f,c
  4815  001DAA  0E28               	movlw	40
  4816  001DAC  6EDE               	movwf	postinc2,c
  4817  001DAE  0E04               	movlw	4
  4818  001DB0  6EDD               	movwf	postdec2,c
  4819                           
  4820                           ; BSR set to: 0
  4821                           ;usb_device.c: 1534: pBDTEntryIn[0]->STAT.Val = 0x40|(0x08 & 0x08);
  4822  001DB2  C068  FFD9         	movff	_pBDTEntryIn,fsr2l
  4823  001DB6  C069  FFDA         	movff	_pBDTEntryIn+1,fsr2h
  4824  001DBA  0E48               	movlw	72
  4825  001DBC  6EDF               	movwf	indf2,c
  4826                           
  4827                           ; BSR set to: 0
  4828                           ;usb_device.c: 1535: pBDTEntryIn[0]->STAT.Val |= 0x80;
  4829  001DBE  C068  FFD9         	movff	_pBDTEntryIn,fsr2l
  4830  001DC2  C069  FFDA         	movff	_pBDTEntryIn+1,fsr2h
  4831  001DC6                     L13:
  4832  001DC6  0E00               	movlw	0
  4833  001DC8  8EDB               	bsf	plusw2,7,c
  4834                           
  4835                           ; BSR set to: 0
  4836  001DCA  0012               	return	
  4837  001DCC                     __end_of_USBCtrlEPAllowDataStage:
  4838                           	opt stack 0
  4839                           pclatu	equ	0xFFB
  4840                           pclath	equ	0xFFA
  4841                           tblptru	equ	0xFF8
  4842                           tblptrh	equ	0xFF7
  4843                           tblptrl	equ	0xFF6
  4844                           tablat	equ	0xFF5
  4845                           prodh	equ	0xFF4
  4846                           prodl	equ	0xFF3
  4847                           intcon	equ	0xFF2
  4848                           postinc0	equ	0xFEE
  4849                           fsr0h	equ	0xFEA
  4850                           fsr0l	equ	0xFE9
  4851                           wreg	equ	0xFE8
  4852                           indf1	equ	0xFE7
  4853                           fsr1h	equ	0xFE2
  4854                           fsr1l	equ	0xFE1
  4855                           indf2	equ	0xFDF
  4856                           postinc2	equ	0xFDE
  4857                           postdec2	equ	0xFDD
  4858                           plusw2	equ	0xFDB
  4859                           fsr2h	equ	0xFDA
  4860                           fsr2l	equ	0xFD9
  4861                           status	equ	0xFD8
  4862                           
  4863 ;; *************** function _USBCheckStdRequest *****************
  4864 ;; Defined at:
  4865 ;;		line 2711 in file "../src/usb_device.c"
  4866 ;; Parameters:    Size  Location     Type
  4867 ;;		None
  4868 ;; Auto vars:     Size  Location     Type
  4869 ;;		None
  4870 ;; Return value:  Size  Location     Type
  4871 ;;		None               void
  4872 ;; Registers used:
  4873 ;;		wreg, fsr0l, fsr0h, fsr2l, fsr2h, status,2, status,0, tblptrl, tblptrh, tblptru, prodl, prodh, cstack
  4874 ;; Tracked objects:
  4875 ;;		On entry : 0/0
  4876 ;;		On exit  : 0/0
  4877 ;;		Unchanged: 0/0
  4878 ;; Data sizes:     COMRAM   BANK0   BANK1   BANK2   BANK3   BANK4   BANK5   BANK6   BANK7
  4879 ;;      Params:         0       0       0       0       0       0       0       0       0
  4880 ;;      Locals:         0       0       0       0       0       0       0       0       0
  4881 ;;      Temps:          2       0       0       0       0       0       0       0       0
  4882 ;;      Totals:         2       0       0       0       0       0       0       0       0
  4883 ;;Total ram usage:        2 bytes
  4884 ;; Hardware stack levels used:    1
  4885 ;; Hardware stack levels required when called:    5
  4886 ;; This function calls:
  4887 ;;		_USBStdFeatureReqHandler
  4888 ;;		_USBStdGetDscHandler
  4889 ;;		_USBStdGetStatusHandler
  4890 ;;		_USBStdSetCfgHandler
  4891 ;;		_USER_USB_CALLBACK_EVENT_HANDLER
  4892 ;; This function is called by:
  4893 ;;		_USBCtrlTrfSetupHandler
  4894 ;; This function uses a non-reentrant model
  4895 ;;
  4896                           
  4897                           	psect	text25
  4898  001784                     __ptext25:
  4899                           	opt stack 0
  4900  001784                     _USBCheckStdRequest:
  4901                           	opt stack 19
  4902                           
  4903                           ;usb_device.c: 2713: if(SetupPkt.RequestType != (0x00>>5)) return;
  4904                           
  4905                           ;incstack = 0
  4906  001784  0104               	movlb	4	; () banked
  4907  001786  3920               	swapf	32,w,b	;volatile
  4908  001788  32E8               	rrcf	wreg,f,c
  4909  00178A  0B03               	andlw	3
  4910  00178C  0900               	iorlw	0
  4911  00178E  A4D8               	btfss	status,2,c
  4912  001790  D070               	goto	i2l621
  4913  001792  D04E               	goto	i2l3266
  4914  001794                     i2l623:
  4915                           
  4916                           ; BSR set to: 4
  4917                           ;usb_device.c: 2718: inPipes[0].info.bits.busy = 1;
  4918  001794  0100               	movlb	0	; () banked
  4919  001796  8F7C               	bsf	(_inPipes+3)& (0+255),7,b	;volatile
  4920                           
  4921                           ; BSR set to: 0
  4922                           ;usb_device.c: 2719: USBDeviceState = ADR_PENDING_STATE;
  4923  001798  0E08               	movlw	8
  4924  00179A  0100               	movlb	0	; () banked
  4925  00179C  6F78               	movwf	_USBDeviceState& (0+255),b	;volatile
  4926                           
  4927                           ;usb_device.c: 2721: break;
  4928  00179E  D069               	goto	i2l621
  4929  0017A0                     i2l3236:
  4930                           
  4931                           ;usb_device.c: 2723: USBStdGetDscHandler();
  4932  0017A0  EC16  F008         	call	_USBStdGetDscHandler	;wreg free
  4933                           
  4934                           ;usb_device.c: 2724: break;
  4935  0017A4  D066               	goto	i2l621
  4936  0017A6                     i2l3238:
  4937                           
  4938                           ;usb_device.c: 2726: USBStdSetCfgHandler();
  4939  0017A6  ECD1  F00A         	call	_USBStdSetCfgHandler	;wreg free
  4940                           
  4941                           ;usb_device.c: 2727: break;
  4942  0017AA  D063               	goto	i2l621
  4943  0017AC                     i2l3240:
  4944                           
  4945                           ;usb_device.c: 2729: inPipes[0].pSrc.bRam = (uint8_t*)&USBActiveConfiguration;
  4946  0017AC  0E00               	movlw	high _USBActiveConfiguration	;volatile
  4947  0017AE  0100               	movlb	0	; () banked
  4948  0017B0  6F7A               	movwf	(_inPipes+1)& (0+255),b	;volatile
  4949  0017B2  0E4C               	movlw	low _USBActiveConfiguration	;volatile
  4950  0017B4  0100               	movlb	0	; () banked
  4951  0017B6  6F79               	movwf	_inPipes& (0+255),b	;volatile
  4952  0017B8  D015               	goto	L14
  4953  0017BA                     i2l3248:
  4954                           
  4955                           ;usb_device.c: 2735: USBStdGetStatusHandler();
  4956  0017BA  EC16  F00D         	call	_USBStdGetStatusHandler	;wreg free
  4957                           
  4958                           ;usb_device.c: 2736: break;
  4959  0017BE  D059               	goto	i2l621
  4960  0017C0                     i2l3250:
  4961                           
  4962                           ;usb_device.c: 2738: case 3:
  4963                           ;usb_device.c: 2739: USBStdFeatureReqHandler();
  4964  0017C0  EC64  F004         	call	_USBStdFeatureReqHandler	;wreg free
  4965                           
  4966                           ;usb_device.c: 2740: break;
  4967  0017C4  D056               	goto	i2l621
  4968  0017C6                     i2l3252:
  4969                           
  4970                           ;usb_device.c: 2742: inPipes[0].pSrc.bRam = (uint8_t*)&USBAlternateInterface[SetupPkt.bI
      +                          ntfID];
  4971  0017C6  0104               	movlb	4	; () banked
  4972  0017C8  5124               	movf	36,w,b	;volatile
  4973  0017CA  0D01               	mullw	1
  4974  0017CC  0E4D               	movlw	low _USBAlternateInterface	;volatile
  4975  0017CE  6E1F               	movwf	??_USBCheckStdRequest& (0+255),c
  4976  0017D0  0E00               	movlw	high _USBAlternateInterface	;volatile
  4977  0017D2  6E20               	movwf	(??_USBCheckStdRequest+1)& (0+255),c
  4978  0017D4  50F3               	movf	prodl,w,c
  4979  0017D6  261F               	addwf	??_USBCheckStdRequest,f,c
  4980  0017D8  50F4               	movf	prodh,w,c
  4981  0017DA  2220               	addwfc	??_USBCheckStdRequest+1,f,c
  4982  0017DC  C01F  F079         	movff	??_USBCheckStdRequest,_inPipes	;volatile
  4983  0017E0  C020  F07A         	movff	??_USBCheckStdRequest+1,_inPipes+1	;volatile
  4984  0017E4                     L14:
  4985                           
  4986                           ; BSR set to: 4
  4987                           ;usb_device.c: 2743: inPipes[0].info.bits.ctrl_trf_mem = 0x01;
  4988  0017E4  0100               	movlb	0	; () banked
  4989  0017E6  817C               	bsf	(_inPipes+3)& (0+255),0,b	;volatile
  4990                           
  4991                           ; BSR set to: 0
  4992                           ;usb_device.c: 2744: inPipes[0].wCount.v[0] = 1;
  4993  0017E8  0E01               	movlw	1
  4994  0017EA  0100               	movlb	0	; () banked
  4995  0017EC  6F7D               	movwf	(_inPipes+4)& (0+255),b	;volatile
  4996                           
  4997                           ; BSR set to: 0
  4998                           ;usb_device.c: 2745: inPipes[0].info.bits.busy = 1;
  4999  0017EE  0100               	movlb	0	; () banked
  5000  0017F0  8F7C               	bsf	(_inPipes+3)& (0+255),7,b	;volatile
  5001                           
  5002                           ;usb_device.c: 2746: break;
  5003  0017F2  D03F               	goto	i2l621
  5004  0017F4                     i2l632:
  5005                           
  5006                           ; BSR set to: 4
  5007                           ;usb_device.c: 2748: inPipes[0].info.bits.busy = 1;
  5008  0017F4  0100               	movlb	0	; () banked
  5009  0017F6  8F7C               	bsf	(_inPipes+3)& (0+255),7,b	;volatile
  5010                           
  5011                           ; BSR set to: 0
  5012                           ;usb_device.c: 2749: USBAlternateInterface[SetupPkt.bIntfID] = SetupPkt.bAltID;
  5013  0017F8  0104               	movlb	4	; () banked
  5014  0017FA  5124               	movf	36,w,b	;volatile
  5015  0017FC  0D01               	mullw	1
  5016  0017FE  0E4D               	movlw	low _USBAlternateInterface	;volatile
  5017  001800  24F3               	addwf	prodl,w,c
  5018  001802  6ED9               	movwf	fsr2l,c
  5019  001804  0E00               	movlw	high _USBAlternateInterface	;volatile
  5020  001806  20F4               	addwfc	prodh,w,c
  5021  001808  6EDA               	movwf	fsr2h,c
  5022  00180A  0104               	movlb	4	; () banked
  5023  00180C  C422 FFDF          	movff	1058,indf2	;volatile
  5024                           
  5025                           ;usb_device.c: 2750: break;
  5026  001810  D030               	goto	i2l621
  5027  001812                     i2l3262:
  5028                           
  5029                           ; BSR set to: 4
  5030                           ;usb_device.c: 2752: USER_USB_CALLBACK_EVENT_HANDLER(EVENT_SET_DESCRIPTOR,0,0);
  5031  001812  0E00               	movlw	0
  5032  001814  6E10               	movwf	USER_USB_CALLBACK_EVENT_HANDLER@event+1,c
  5033  001816  0E02               	movlw	2
  5034  001818  6E0F               	movwf	USER_USB_CALLBACK_EVENT_HANDLER@event,c
  5035  00181A  0E00               	movlw	0
  5036  00181C  6E12               	movwf	USER_USB_CALLBACK_EVENT_HANDLER@pdata+1,c
  5037  00181E  0E00               	movlw	0
  5038  001820  6E11               	movwf	USER_USB_CALLBACK_EVENT_HANDLER@pdata,c
  5039  001822  0E00               	movlw	0
  5040  001824  6E14               	movwf	USER_USB_CALLBACK_EVENT_HANDLER@size+1,c
  5041  001826  0E00               	movlw	0
  5042  001828  6E13               	movwf	USER_USB_CALLBACK_EVENT_HANDLER@size,c
  5043  00182A  ECBE  F00F         	call	_USER_USB_CALLBACK_EVENT_HANDLER	;wreg free
  5044                           
  5045                           ;usb_device.c: 2753: break;
  5046  00182E  D021               	goto	i2l621
  5047  001830                     i2l3266:
  5048  001830  0104               	movlb	4	; () banked
  5049  001832  5121               	movf	33,w,b	;volatile
  5050                           
  5051                           ; Switch size 1, requested type "space"
  5052                           ; Number of cases is 11, Range of values is 0 to 12
  5053                           ; switch strategies available:
  5054                           ; Name         Instructions Cycles
  5055                           ; simple_byte           34    18 (average)
  5056                           ;	Chosen strategy is simple_byte
  5057  001834  0A00               	xorlw	0	; case 0
  5058  001836  B4D8               	btfsc	status,2,c
  5059  001838  D7C0               	goto	i2l3248
  5060  00183A  0A01               	xorlw	1	; case 1
  5061  00183C  B4D8               	btfsc	status,2,c
  5062  00183E  D7C0               	goto	i2l3250
  5063  001840  0A02               	xorlw	2	; case 3
  5064  001842  B4D8               	btfsc	status,2,c
  5065  001844  D7BD               	goto	i2l3250
  5066  001846  0A06               	xorlw	6	; case 5
  5067  001848  B4D8               	btfsc	status,2,c
  5068  00184A  D7A4               	goto	i2l623
  5069  00184C  0A03               	xorlw	3	; case 6
  5070  00184E  B4D8               	btfsc	status,2,c
  5071  001850  D7A7               	goto	i2l3236
  5072  001852  0A01               	xorlw	1	; case 7
  5073  001854  B4D8               	btfsc	status,2,c
  5074  001856  D7DD               	goto	i2l3262
  5075  001858  0A0F               	xorlw	15	; case 8
  5076  00185A  B4D8               	btfsc	status,2,c
  5077  00185C  D7A7               	goto	i2l3240
  5078  00185E  0A01               	xorlw	1	; case 9
  5079  001860  B4D8               	btfsc	status,2,c
  5080  001862  D7A1               	goto	i2l3238
  5081  001864  0A03               	xorlw	3	; case 10
  5082  001866  B4D8               	btfsc	status,2,c
  5083  001868  D7AE               	goto	i2l3252
  5084  00186A  0A01               	xorlw	1	; case 11
  5085  00186C  B4D8               	btfsc	status,2,c
  5086  00186E  D7C2               	goto	i2l632
  5087  001870  0A07               	xorlw	7	; case 12
  5088  001872                     i2l621:
  5089  001872  0012               	return	
  5090  001874                     __end_of_USBCheckStdRequest:
  5091                           	opt stack 0
  5092                           pclatu	equ	0xFFB
  5093                           pclath	equ	0xFFA
  5094                           tblptru	equ	0xFF8
  5095                           tblptrh	equ	0xFF7
  5096                           tblptrl	equ	0xFF6
  5097                           tablat	equ	0xFF5
  5098                           prodh	equ	0xFF4
  5099                           prodl	equ	0xFF3
  5100                           intcon	equ	0xFF2
  5101                           postinc0	equ	0xFEE
  5102                           fsr0h	equ	0xFEA
  5103                           fsr0l	equ	0xFE9
  5104                           wreg	equ	0xFE8
  5105                           indf1	equ	0xFE7
  5106                           fsr1h	equ	0xFE2
  5107                           fsr1l	equ	0xFE1
  5108                           indf2	equ	0xFDF
  5109                           postinc2	equ	0xFDE
  5110                           postdec2	equ	0xFDD
  5111                           plusw2	equ	0xFDB
  5112                           fsr2h	equ	0xFDA
  5113                           fsr2l	equ	0xFD9
  5114                           status	equ	0xFD8
  5115                           
  5116 ;; *************** function _USBStdSetCfgHandler *****************
  5117 ;; Defined at:
  5118 ;;		line 1987 in file "../src/usb_device.c"
  5119 ;; Parameters:    Size  Location     Type
  5120 ;;		None
  5121 ;; Auto vars:     Size  Location     Type
  5122 ;;  i               1   22[COMRAM] unsigned char 
  5123 ;; Return value:  Size  Location     Type
  5124 ;;		None               void
  5125 ;; Registers used:
  5126 ;;		wreg, fsr2l, fsr2h, status,2, status,0, prodl, prodh, cstack
  5127 ;; Tracked objects:
  5128 ;;		On entry : 0/0
  5129 ;;		On exit  : 0/0
  5130 ;;		Unchanged: 0/0
  5131 ;; Data sizes:     COMRAM   BANK0   BANK1   BANK2   BANK3   BANK4   BANK5   BANK6   BANK7
  5132 ;;      Params:         0       0       0       0       0       0       0       0       0
  5133 ;;      Locals:         1       0       0       0       0       0       0       0       0
  5134 ;;      Temps:          0       0       0       0       0       0       0       0       0
  5135 ;;      Totals:         1       0       0       0       0       0       0       0       0
  5136 ;;Total ram usage:        1 bytes
  5137 ;; Hardware stack levels used:    1
  5138 ;; Hardware stack levels required when called:    4
  5139 ;; This function calls:
  5140 ;;		_USER_USB_CALLBACK_EVENT_HANDLER
  5141 ;;		i2_memset
  5142 ;; This function is called by:
  5143 ;;		_USBCheckStdRequest
  5144 ;; This function uses a non-reentrant model
  5145 ;;
  5146                           
  5147                           	psect	text26
  5148  0015A2                     __ptext26:
  5149                           	opt stack 0
  5150  0015A2                     _USBStdSetCfgHandler:
  5151                           	opt stack 19
  5152                           
  5153                           ;usb_device.c: 1989: uint8_t i;
  5154                           ;usb_device.c: 1992: inPipes[0].info.bits.busy = 1;
  5155                           
  5156                           ;incstack = 0
  5157  0015A2  0100               	movlb	0	; () banked
  5158  0015A4  8F7C               	bsf	(_inPipes+3)& (0+255),7,b	;volatile
  5159                           
  5160                           ; BSR set to: 0
  5161                           ;usb_device.c: 1995: memset((void*)&UEP1,0x00,(1));;
  5162  0015A6  0E0F               	movlw	15	;volatile
  5163  0015A8  6E02               	movwf	i2memset@p1+1,c
  5164  0015AA  0E71               	movlw	113	;volatile
  5165  0015AC  6E01               	movwf	i2memset@p1,c
  5166  0015AE  0E00               	movlw	0
  5167  0015B0  6E04               	movwf	i2memset@c+1,c
  5168  0015B2  0E00               	movlw	0
  5169  0015B4  6E03               	movwf	i2memset@c,c
  5170  0015B6  0E00               	movlw	0
  5171  0015B8  6E06               	movwf	i2memset@n+1,c
  5172  0015BA  0E01               	movlw	1
  5173  0015BC  6E05               	movwf	i2memset@n,c
  5174  0015BE  ECEF  F011         	call	i2_memset	;wreg free
  5175                           
  5176                           ;usb_device.c: 1998: memset((void*)&BDT[0], 0x00, sizeof(BDT));
  5177  0015C2  0104               	movlb	4	; () banked
  5178  0015C4  0E04               	movlw	4	;volatile
  5179  0015C6  6E02               	movwf	i2memset@p1+1,c
  5180  0015C8  0104               	movlb	4	; () banked
  5181  0015CA  0E00               	movlw	0	;volatile
  5182  0015CC  6E01               	movwf	i2memset@p1,c
  5183  0015CE  0E00               	movlw	0
  5184  0015D0  6E04               	movwf	i2memset@c+1,c
  5185  0015D2  0E00               	movlw	0
  5186  0015D4  6E03               	movwf	i2memset@c,c
  5187  0015D6  0E00               	movlw	0
  5188  0015D8  6E06               	movwf	i2memset@n+1,c
  5189  0015DA  0E20               	movlw	32
  5190  0015DC  6E05               	movwf	i2memset@n,c
  5191  0015DE  ECEF  F011         	call	i2_memset	;wreg free
  5192                           
  5193                           ;usb_device.c: 2001: UCONbits.PPBRST = 1;
  5194  0015E2  8C6D               	bsf	3949,6,c	;volatile
  5195                           
  5196                           ;usb_device.c: 2006: for(i = 0; i < (uint8_t)(1+1u); i++)
  5197  0015E4  0E00               	movlw	0
  5198  0015E6  6E17               	movwf	USBStdSetCfgHandler@i,c
  5199  0015E8  D019               	goto	L16
  5200  0015EA                     i2l2964:
  5201                           
  5202                           ;usb_device.c: 2007: {
  5203                           ;usb_device.c: 2008: ep_data_in[i].Val = 0u;
  5204  0015EA  5017               	movf	USBStdSetCfgHandler@i,w,c
  5205  0015EC  0D01               	mullw	1
  5206  0015EE  0100               	movlb	0	; () banked
  5207  0015F0  0E74               	movlw	low _ep_data_in	;volatile
  5208  0015F2  24F3               	addwf	prodl,w,c
  5209  0015F4  6ED9               	movwf	fsr2l,c
  5210  0015F6  0100               	movlb	0	; () banked
  5211  0015F8  0E00               	movlw	high _ep_data_in	;volatile
  5212  0015FA  20F4               	addwfc	prodh,w,c
  5213  0015FC  6EDA               	movwf	fsr2h,c
  5214  0015FE  0E00               	movlw	0
  5215  001600  6EDF               	movwf	indf2,c
  5216                           
  5217                           ;usb_device.c: 2009: ep_data_out[i].Val = 0u;
  5218  001602  5017               	movf	USBStdSetCfgHandler@i,w,c
  5219  001604  0D01               	mullw	1
  5220  001606  0100               	movlb	0	; () banked
  5221  001608  0E76               	movlw	low _ep_data_out	;volatile
  5222  00160A  24F3               	addwf	prodl,w,c
  5223  00160C  6ED9               	movwf	fsr2l,c
  5224  00160E  0100               	movlb	0	; () banked
  5225  001610  0E00               	movlw	high _ep_data_out	;volatile
  5226  001612  20F4               	addwfc	prodh,w,c
  5227  001614  6EDA               	movwf	fsr2h,c
  5228  001616  0E00               	movlw	0
  5229  001618  6EDF               	movwf	indf2,c
  5230                           
  5231                           ; BSR set to: 0
  5232  00161A  2A17               	incf	USBStdSetCfgHandler@i,f,c
  5233  00161C                     L16:
  5234                           
  5235                           ; BSR set to: 0
  5236  00161C  0E01               	movlw	1
  5237  00161E  6417               	cpfsgt	USBStdSetCfgHandler@i,c
  5238  001620  D7E4               	goto	i2l2964
  5239                           
  5240                           ;usb_device.c: 2010: }
  5241                           ;usb_device.c: 2013: memset((void*)&USBAlternateInterface,0x00,1);
  5242                           
  5243                           ; BSR set to: 0
  5244  001622  0E00               	movlw	high _USBAlternateInterface	;volatile
  5245  001624  6E02               	movwf	i2memset@p1+1,c
  5246  001626  0E4D               	movlw	low _USBAlternateInterface	;volatile
  5247  001628  6E01               	movwf	i2memset@p1,c
  5248  00162A  0E00               	movlw	0
  5249  00162C  6E04               	movwf	i2memset@c+1,c
  5250  00162E  0E00               	movlw	0
  5251  001630  6E03               	movwf	i2memset@c,c
  5252  001632  0E00               	movlw	0
  5253  001634  6E06               	movwf	i2memset@n+1,c
  5254  001636  0E01               	movlw	1
  5255  001638  6E05               	movwf	i2memset@n,c
  5256  00163A  ECEF  F011         	call	i2_memset	;wreg free
  5257                           
  5258                           ;usb_device.c: 2016: UCONbits.PPBRST = 0;
  5259  00163E  9C6D               	bcf	3949,6,c	;volatile
  5260                           
  5261                           ;usb_device.c: 2018: pBDTEntryIn[0] = (volatile BDT_ENTRY*)&BDT[2];
  5262  001640  0104               	movlb	4	; () banked
  5263  001642  0E04               	movlw	4	;volatile
  5264  001644  0100               	movlb	0	; () banked
  5265  001646  6F69               	movwf	(_pBDTEntryIn+1)& (0+255),b
  5266  001648  0104               	movlb	4	; () banked
  5267  00164A  0E08               	movlw	8	;volatile
  5268  00164C  0100               	movlb	0	; () banked
  5269  00164E  6F68               	movwf	_pBDTEntryIn& (0+255),b
  5270                           
  5271                           ; BSR set to: 0
  5272                           ;usb_device.c: 2021: pBDTEntryEP0OutCurrent = (volatile BDT_ENTRY*)&BDT[0];
  5273  001650  0104               	movlb	4	; () banked
  5274  001652  0E04               	movlw	4	;volatile
  5275  001654  6E3A               	movwf	_pBDTEntryEP0OutCurrent+1,c
  5276  001656  0104               	movlb	4	; () banked
  5277  001658  0E00               	movlw	0	;volatile
  5278  00165A  6E39               	movwf	_pBDTEntryEP0OutCurrent,c
  5279                           
  5280                           ; BSR set to: 4
  5281                           ;usb_device.c: 2022: pBDTEntryEP0OutNext = pBDTEntryEP0OutCurrent;
  5282  00165C  C03A  F03C         	movff	_pBDTEntryEP0OutCurrent+1,_pBDTEntryEP0OutNext+1
  5283  001660  C039  F03B         	movff	_pBDTEntryEP0OutCurrent,_pBDTEntryEP0OutNext
  5284                           
  5285                           ; BSR set to: 4
  5286                           ;usb_device.c: 2025: USBActiveConfiguration = SetupPkt.bConfigurationValue;
  5287  001664  C422 F04C          	movff	1058,_USBActiveConfiguration	;volatile
  5288                           
  5289                           ; BSR set to: 4
  5290                           ;usb_device.c: 2028: if(USBActiveConfiguration == 0)
  5291  001668  664C               	tstfsz	_USBActiveConfiguration,c	;volatile
  5292  00166A  D002               	goto	i2l2986
  5293                           
  5294                           ; BSR set to: 4
  5295                           ;usb_device.c: 2029: {
  5296                           ;usb_device.c: 2031: USBDeviceState = ADDRESS_STATE;
  5297  00166C  0E10               	movlw	16
  5298  00166E  D00F               	goto	L15
  5299  001670                     i2l2986:
  5300                           
  5301                           ;usb_device.c: 2033: else
  5302                           ;usb_device.c: 2034: {
  5303                           ;usb_device.c: 2036: USER_USB_CALLBACK_EVENT_HANDLER(EVENT_CONFIGURED,(void*)&USBActiveC
      +                          onfiguration,1);
  5304  001670  0E00               	movlw	0
  5305  001672  6E10               	movwf	USER_USB_CALLBACK_EVENT_HANDLER@event+1,c
  5306  001674  0E01               	movlw	1
  5307  001676  6E0F               	movwf	USER_USB_CALLBACK_EVENT_HANDLER@event,c
  5308  001678  0E00               	movlw	high _USBActiveConfiguration	;volatile
  5309  00167A  6E12               	movwf	USER_USB_CALLBACK_EVENT_HANDLER@pdata+1,c
  5310  00167C  0E4C               	movlw	low _USBActiveConfiguration	;volatile
  5311  00167E  6E11               	movwf	USER_USB_CALLBACK_EVENT_HANDLER@pdata,c
  5312  001680  0E00               	movlw	0
  5313  001682  6E14               	movwf	USER_USB_CALLBACK_EVENT_HANDLER@size+1,c
  5314  001684  0E01               	movlw	1
  5315  001686  6E13               	movwf	USER_USB_CALLBACK_EVENT_HANDLER@size,c
  5316  001688  ECBE  F00F         	call	_USER_USB_CALLBACK_EVENT_HANDLER	;wreg free
  5317                           
  5318                           ;usb_device.c: 2041: USBDeviceState = CONFIGURED_STATE;
  5319  00168C  0E20               	movlw	32
  5320  00168E                     L15:
  5321  00168E  0100               	movlb	0	; () banked
  5322  001690  6F78               	movwf	_USBDeviceState& (0+255),b	;volatile
  5323                           
  5324                           ; BSR set to: 0
  5325                           
  5326                           ; BSR set to: 0
  5327  001692  0012               	return	
  5328  001694                     __end_of_USBStdSetCfgHandler:
  5329                           	opt stack 0
  5330                           pclatu	equ	0xFFB
  5331                           pclath	equ	0xFFA
  5332                           tblptru	equ	0xFF8
  5333                           tblptrh	equ	0xFF7
  5334                           tblptrl	equ	0xFF6
  5335                           tablat	equ	0xFF5
  5336                           prodh	equ	0xFF4
  5337                           prodl	equ	0xFF3
  5338                           intcon	equ	0xFF2
  5339                           postinc0	equ	0xFEE
  5340                           fsr0h	equ	0xFEA
  5341                           fsr0l	equ	0xFE9
  5342                           wreg	equ	0xFE8
  5343                           indf1	equ	0xFE7
  5344                           fsr1h	equ	0xFE2
  5345                           fsr1l	equ	0xFE1
  5346                           indf2	equ	0xFDF
  5347                           postinc2	equ	0xFDE
  5348                           postdec2	equ	0xFDD
  5349                           plusw2	equ	0xFDB
  5350                           fsr2h	equ	0xFDA
  5351                           fsr2l	equ	0xFD9
  5352                           status	equ	0xFD8
  5353                           
  5354 ;; *************** function i2_memset *****************
  5355 ;; Defined at:
  5356 ;;		line 8 in file "/opt/microchip/xc8/v1.33/sources/common/memset.c"
  5357 ;; Parameters:    Size  Location     Type
  5358 ;;  p1              2    0[COMRAM] PTR void 
  5359 ;;		 -> USBAlternateInterface(1), BDT(32), UEP1(1), 
  5360 ;;  c               2    2[COMRAM] int 
  5361 ;;  n               2    4[COMRAM] unsigned int 
  5362 ;; Auto vars:     Size  Location     Type
  5363 ;;  memset          2    6[COMRAM] PTR unsigned char 
  5364 ;;		 -> USBAlternateInterface(1), BDT(32), UEP1(1), 
  5365 ;; Return value:  Size  Location     Type
  5366 ;;                  2    0[COMRAM] PTR void 
  5367 ;; Registers used:
  5368 ;;		wreg, fsr2l, fsr2h, status,2, status,0
  5369 ;; Tracked objects:
  5370 ;;		On entry : 0/0
  5371 ;;		On exit  : 0/0
  5372 ;;		Unchanged: 0/0
  5373 ;; Data sizes:     COMRAM   BANK0   BANK1   BANK2   BANK3   BANK4   BANK5   BANK6   BANK7
  5374 ;;      Params:         6       0       0       0       0       0       0       0       0
  5375 ;;      Locals:         2       0       0       0       0       0       0       0       0
  5376 ;;      Temps:          0       0       0       0       0       0       0       0       0
  5377 ;;      Totals:         8       0       0       0       0       0       0       0       0
  5378 ;;Total ram usage:        8 bytes
  5379 ;; Hardware stack levels used:    1
  5380 ;; This function calls:
  5381 ;;		Nothing
  5382 ;; This function is called by:
  5383 ;;		_USBStdSetCfgHandler
  5384 ;;		i2_USBDeviceInit
  5385 ;; This function uses a non-reentrant model
  5386 ;;
  5387                           
  5388                           	psect	text27
  5389  0023DE                     __ptext27:
  5390                           	opt stack 0
  5391  0023DE                     i2_memset:
  5392                           	opt stack 25
  5393                           
  5394                           ; BSR set to: 0
  5395                           ;incstack = 0
  5396  0023DE  C002  F008         	movff	i2memset@p1+1,i2memset@p+1
  5397  0023E2  C001  F007         	movff	i2memset@p1,i2memset@p
  5398  0023E6  D008               	goto	i2l2892
  5399  0023E8                     i2l2888:
  5400  0023E8  C007  FFD9         	movff	i2memset@p,fsr2l
  5401  0023EC  C008  FFDA         	movff	i2memset@p+1,fsr2h
  5402  0023F0  C003  FFDF         	movff	i2memset@c,indf2
  5403  0023F4  4A07               	infsnz	i2memset@p,f,c
  5404  0023F6  2A08               	incf	i2memset@p+1,f,c
  5405  0023F8                     i2l2892:
  5406  0023F8  0605               	decf	i2memset@n,f,c
  5407  0023FA  A0D8               	btfss	status,0,c
  5408  0023FC  0606               	decf	i2memset@n+1,f,c
  5409  0023FE  2805               	incf	i2memset@n& (0+255),w,c
  5410  002400  B4D8               	btfsc	status,2,c
  5411  002402  2806               	incf	(i2memset@n+1)& (0+255),w,c
  5412  002404  B4D8               	btfsc	status,2,c
  5413                           
  5414                           ;	Return value of i2_memset is never used
  5415  002406  0012               	return	
  5416  002408  D7EF               	goto	i2l2888
  5417  00240A                     __end_ofi2_memset:
  5418                           	opt stack 0
  5419                           pclatu	equ	0xFFB
  5420                           pclath	equ	0xFFA
  5421                           tblptru	equ	0xFF8
  5422                           tblptrh	equ	0xFF7
  5423                           tblptrl	equ	0xFF6
  5424                           tablat	equ	0xFF5
  5425                           prodh	equ	0xFF4
  5426                           prodl	equ	0xFF3
  5427                           intcon	equ	0xFF2
  5428                           postinc0	equ	0xFEE
  5429                           fsr0h	equ	0xFEA
  5430                           fsr0l	equ	0xFE9
  5431                           wreg	equ	0xFE8
  5432                           indf1	equ	0xFE7
  5433                           fsr1h	equ	0xFE2
  5434                           fsr1l	equ	0xFE1
  5435                           indf2	equ	0xFDF
  5436                           postinc2	equ	0xFDE
  5437                           postdec2	equ	0xFDD
  5438                           plusw2	equ	0xFDB
  5439                           fsr2h	equ	0xFDA
  5440                           fsr2l	equ	0xFD9
  5441                           status	equ	0xFD8
  5442                           
  5443 ;; *************** function _USBStdGetStatusHandler *****************
  5444 ;; Defined at:
  5445 ;;		line 2148 in file "../src/usb_device.c"
  5446 ;; Parameters:    Size  Location     Type
  5447 ;;		None
  5448 ;; Auto vars:     Size  Location     Type
  5449 ;;  p               2    1[COMRAM] PTR struct __BDT
  5450 ;;		 -> BDT(32), NULL(0), 
  5451 ;; Return value:  Size  Location     Type
  5452 ;;		None               void
  5453 ;; Registers used:
  5454 ;;		wreg, fsr2l, fsr2h, status,2, status,0, prodl, prodh
  5455 ;; Tracked objects:
  5456 ;;		On entry : 0/0
  5457 ;;		On exit  : 0/0
  5458 ;;		Unchanged: 0/0
  5459 ;; Data sizes:     COMRAM   BANK0   BANK1   BANK2   BANK3   BANK4   BANK5   BANK6   BANK7
  5460 ;;      Params:         0       0       0       0       0       0       0       0       0
  5461 ;;      Locals:         2       0       0       0       0       0       0       0       0
  5462 ;;      Temps:          1       0       0       0       0       0       0       0       0
  5463 ;;      Totals:         3       0       0       0       0       0       0       0       0
  5464 ;;Total ram usage:        3 bytes
  5465 ;; Hardware stack levels used:    1
  5466 ;; This function calls:
  5467 ;;		Nothing
  5468 ;; This function is called by:
  5469 ;;		_USBCheckStdRequest
  5470 ;; This function uses a non-reentrant model
  5471 ;;
  5472                           
  5473                           	psect	text28
  5474  001A2C                     __ptext28:
  5475                           	opt stack 0
  5476  001A2C                     _USBStdGetStatusHandler:
  5477                           	opt stack 23
  5478                           
  5479                           ;usb_device.c: 2150: CtrlTrfData[0] = 0;
  5480                           
  5481                           ;incstack = 0
  5482  001A2C  0E00               	movlw	0
  5483  001A2E  0104               	movlb	4	; () banked
  5484  001A30  6F28               	movwf	40,b	;volatile
  5485                           
  5486                           ;usb_device.c: 2151: CtrlTrfData[1] = 0;
  5487  001A32  0E00               	movlw	0
  5488  001A34  0104               	movlb	4	; () banked
  5489  001A36  6F29               	movwf	41,b	;volatile
  5490                           
  5491                           ;usb_device.c: 2153: switch(SetupPkt.Recipient)
  5492  001A38  D041               	goto	i2l3040
  5493  001A3A                     i2l559:
  5494                           
  5495                           ; BSR set to: 4
  5496                           ;usb_device.c: 2161: if(1 == 1)
  5497  001A3A  0100               	movlb	0	; () banked
  5498  001A3C  8F7C               	bsf	(_inPipes+3)& (0+255),7,b	;volatile
  5499                           
  5500                           ; BSR set to: 0
  5501                           ;usb_device.c: 2162: {
  5502                           ;usb_device.c: 2163: CtrlTrfData[0]|=0x01;
  5503  001A3E  0104               	movlb	4	; () banked
  5504  001A40  8128               	bsf	40,0,b	;volatile
  5505                           
  5506                           ; BSR set to: 4
  5507                           ;usb_device.c: 2164: }
  5508                           ;usb_device.c: 2166: if(RemoteWakeup == 1)
  5509                           
  5510                           ; BSR set to: 4
  5511  001A42  0440               	decf	_RemoteWakeup,w,c	;volatile
  5512  001A44  A4D8               	btfss	status,2,c
  5513  001A46  D046               	goto	i2l562
  5514                           
  5515                           ; BSR set to: 4
  5516                           ;usb_device.c: 2167: {
  5517                           ;usb_device.c: 2168: CtrlTrfData[0]|=0x02;
  5518  001A48  0104               	movlb	4	; () banked
  5519  001A4A  8328               	bsf	40,1,b	;volatile
  5520  001A4C  D043               	goto	i2l562
  5521  001A4E                     i2l563:
  5522                           
  5523                           ; BSR set to: 4
  5524                           ;usb_device.c: 2172: inPipes[0].info.bits.busy = 1;
  5525  001A4E  0100               	movlb	0	; () banked
  5526  001A50  8F7C               	bsf	(_inPipes+3)& (0+255),7,b	;volatile
  5527                           
  5528                           ;usb_device.c: 2173: break;
  5529  001A52  D040               	goto	i2l562
  5530  001A54                     i2l564:
  5531                           
  5532                           ; BSR set to: 4
  5533                           ;usb_device.c: 2175: inPipes[0].info.bits.busy = 1;
  5534  001A54  0100               	movlb	0	; () banked
  5535  001A56  8F7C               	bsf	(_inPipes+3)& (0+255),7,b	;volatile
  5536                           
  5537                           ;usb_device.c: 2179: {
  5538                           ;usb_device.c: 2180: BDT_ENTRY *p;
  5539                           ;usb_device.c: 2182: if(SetupPkt.EPDir == 0)
  5540  001A58  0104               	movlb	4	; () banked
  5541  001A5A  BF24               	btfsc	36,7,b	;volatile
  5542  001A5C  D00D               	goto	i2l3030
  5543                           
  5544                           ; BSR set to: 4
  5545                           ;usb_device.c: 2183: {
  5546                           ;usb_device.c: 2184: p = (BDT_ENTRY*)pBDTEntryOut[SetupPkt.EPNum];
  5547  001A5E  0104               	movlb	4	; () banked
  5548  001A60  5124               	movf	36,w,b	;volatile
  5549  001A62  0B0F               	andlw	15
  5550  001A64  6E01               	movwf	??_USBStdGetStatusHandler& (0+255),c
  5551  001A66  5001               	movf	??_USBStdGetStatusHandler,w,c
  5552  001A68  0D02               	mullw	2
  5553  001A6A  0100               	movlb	0	; () banked
  5554  001A6C  0E6C               	movlw	low _pBDTEntryOut
  5555  001A6E  24F3               	addwf	prodl,w,c
  5556  001A70  6ED9               	movwf	fsr2l,c
  5557  001A72  0100               	movlb	0	; () banked
  5558  001A74  0E00               	movlw	high _pBDTEntryOut
  5559  001A76  D00C               	goto	L17
  5560  001A78                     i2l3030:
  5561                           
  5562                           ;usb_device.c: 2186: else
  5563                           ;usb_device.c: 2187: {
  5564                           ;usb_device.c: 2188: p = (BDT_ENTRY*)pBDTEntryIn[SetupPkt.EPNum];
  5565  001A78  0104               	movlb	4	; () banked
  5566  001A7A  5124               	movf	36,w,b	;volatile
  5567  001A7C  0B0F               	andlw	15
  5568  001A7E  6E01               	movwf	??_USBStdGetStatusHandler& (0+255),c
  5569  001A80  5001               	movf	??_USBStdGetStatusHandler,w,c
  5570  001A82  0D02               	mullw	2
  5571  001A84  0100               	movlb	0	; () banked
  5572  001A86  0E68               	movlw	low _pBDTEntryIn
  5573  001A88  24F3               	addwf	prodl,w,c
  5574  001A8A  6ED9               	movwf	fsr2l,c
  5575  001A8C  0100               	movlb	0	; () banked
  5576  001A8E  0E00               	movlw	high _pBDTEntryIn
  5577  001A90                     L17:
  5578  001A90  20F4               	addwfc	prodh,w,c
  5579  001A92  6EDA               	movwf	fsr2h,c
  5580  001A94  CFDE F002          	movff	postinc2,USBStdGetStatusHandler@p
  5581  001A98  CFDD F003          	movff	postdec2,USBStdGetStatusHandler@p+1
  5582                           
  5583                           ; BSR set to: 0
  5584                           ;usb_device.c: 2189: }
  5585                           ;usb_device.c: 2191: if((p->STAT.UOWN == 1) && (p->STAT.BSTALL == 1))
  5586                           
  5587                           ; BSR set to: 0
  5588  001A9C  C002  FFD9         	movff	USBStdGetStatusHandler@p,fsr2l
  5589  001AA0  C003  FFDA         	movff	USBStdGetStatusHandler@p+1,fsr2h
  5590  001AA4  AEDF               	btfss	indf2,7,c
  5591  001AA6  D016               	goto	i2l562
  5592                           
  5593                           ; BSR set to: 0
  5594  001AA8  C002  FFD9         	movff	USBStdGetStatusHandler@p,fsr2l
  5595  001AAC  C003  FFDA         	movff	USBStdGetStatusHandler@p+1,fsr2h
  5596  001AB0  A4DF               	btfss	indf2,2,c
  5597  001AB2  D010               	goto	i2l562
  5598                           
  5599                           ; BSR set to: 0
  5600                           ;usb_device.c: 2192: CtrlTrfData[0]=0x01;
  5601  001AB4  0E01               	movlw	1
  5602  001AB6  0104               	movlb	4	; () banked
  5603  001AB8  6F28               	movwf	40,b	;volatile
  5604  001ABA  D00C               	goto	i2l562
  5605  001ABC                     i2l3040:
  5606                           
  5607                           ; BSR set to: 4
  5608  001ABC  0104               	movlb	4	; () banked
  5609  001ABE  5120               	movf	32,w,b	;volatile
  5610  001AC0  0B1F               	andlw	31
  5611                           
  5612                           ; Switch size 1, requested type "space"
  5613                           ; Number of cases is 3, Range of values is 0 to 2
  5614                           ; switch strategies available:
  5615                           ; Name         Instructions Cycles
  5616                           ; simple_byte           10     6 (average)
  5617                           ;	Chosen strategy is simple_byte
  5618  001AC2  0A00               	xorlw	0	; case 0
  5619  001AC4  B4D8               	btfsc	status,2,c
  5620  001AC6  D7B9               	goto	i2l559
  5621  001AC8  0A01               	xorlw	1	; case 1
  5622  001ACA  B4D8               	btfsc	status,2,c
  5623  001ACC  D7C0               	goto	i2l563
  5624  001ACE  0A03               	xorlw	3	; case 2
  5625  001AD0  B4D8               	btfsc	status,2,c
  5626  001AD2  D7C0               	goto	i2l564
  5627  001AD4                     i2l562:
  5628                           
  5629                           ;usb_device.c: 2197: if(inPipes[0].info.bits.busy == 1)
  5630  001AD4  0100               	movlb	0	; () banked
  5631  001AD6  AF7C               	btfss	(_inPipes+3)& (0+255),7,b	;volatile
  5632  001AD8  D00D               	goto	i2l569
  5633                           
  5634                           ; BSR set to: 0
  5635                           ;usb_device.c: 2198: {
  5636                           ;usb_device.c: 2199: inPipes[0].pSrc.bRam = (uint8_t*)&CtrlTrfData;
  5637  001ADA  0104               	movlb	4	; () banked
  5638  001ADC  0E04               	movlw	4	;volatile
  5639  001ADE  0100               	movlb	0	; () banked
  5640  001AE0  6F7A               	movwf	(_inPipes+1)& (0+255),b	;volatile
  5641  001AE2  0104               	movlb	4	; () banked
  5642  001AE4  0E28               	movlw	40	;volatile
  5643  001AE6  0100               	movlb	0	; () banked
  5644  001AE8  6F79               	movwf	_inPipes& (0+255),b	;volatile
  5645                           
  5646                           ; BSR set to: 0
  5647                           ;usb_device.c: 2200: inPipes[0].info.bits.ctrl_trf_mem = 0x01;
  5648  001AEA  0100               	movlb	0	; () banked
  5649  001AEC  817C               	bsf	(_inPipes+3)& (0+255),0,b	;volatile
  5650                           
  5651                           ; BSR set to: 0
  5652                           ;usb_device.c: 2201: inPipes[0].wCount.v[0] = 2;
  5653  001AEE  0E02               	movlw	2
  5654  001AF0  0100               	movlb	0	; () banked
  5655  001AF2  6F7D               	movwf	(_inPipes+4)& (0+255),b	;volatile
  5656  001AF4                     i2l569:
  5657                           
  5658                           ; BSR set to: 0
  5659  001AF4  0012               	return	
  5660  001AF6                     __end_of_USBStdGetStatusHandler:
  5661                           	opt stack 0
  5662                           pclatu	equ	0xFFB
  5663                           pclath	equ	0xFFA
  5664                           tblptru	equ	0xFF8
  5665                           tblptrh	equ	0xFF7
  5666                           tblptrl	equ	0xFF6
  5667                           tablat	equ	0xFF5
  5668                           prodh	equ	0xFF4
  5669                           prodl	equ	0xFF3
  5670                           intcon	equ	0xFF2
  5671                           postinc0	equ	0xFEE
  5672                           fsr0h	equ	0xFEA
  5673                           fsr0l	equ	0xFE9
  5674                           wreg	equ	0xFE8
  5675                           indf1	equ	0xFE7
  5676                           fsr1h	equ	0xFE2
  5677                           fsr1l	equ	0xFE1
  5678                           indf2	equ	0xFDF
  5679                           postinc2	equ	0xFDE
  5680                           postdec2	equ	0xFDD
  5681                           plusw2	equ	0xFDB
  5682                           fsr2h	equ	0xFDA
  5683                           fsr2l	equ	0xFD9
  5684                           status	equ	0xFD8
  5685                           
  5686 ;; *************** function _USBStdGetDscHandler *****************
  5687 ;; Defined at:
  5688 ;;		line 2062 in file "../src/usb_device.c"
  5689 ;; Parameters:    Size  Location     Type
  5690 ;;		None
  5691 ;; Auto vars:     Size  Location     Type
  5692 ;;		None
  5693 ;; Return value:  Size  Location     Type
  5694 ;;		None               void
  5695 ;; Registers used:
  5696 ;;		wreg, fsr0l, fsr0h, status,2, status,0, tblptrl, tblptrh, tblptru, prodl, prodh
  5697 ;; Tracked objects:
  5698 ;;		On entry : 0/0
  5699 ;;		On exit  : 0/0
  5700 ;;		Unchanged: 0/0
  5701 ;; Data sizes:     COMRAM   BANK0   BANK1   BANK2   BANK3   BANK4   BANK5   BANK6   BANK7
  5702 ;;      Params:         0       0       0       0       0       0       0       0       0
  5703 ;;      Locals:         0       0       0       0       0       0       0       0       0
  5704 ;;      Temps:          2       0       0       0       0       0       0       0       0
  5705 ;;      Totals:         2       0       0       0       0       0       0       0       0
  5706 ;;Total ram usage:        2 bytes
  5707 ;; Hardware stack levels used:    1
  5708 ;; This function calls:
  5709 ;;		Nothing
  5710 ;; This function is called by:
  5711 ;;		_USBCheckStdRequest
  5712 ;; This function uses a non-reentrant model
  5713 ;;
  5714                           
  5715                           	psect	text29
  5716  00102C                     __ptext29:
  5717                           	opt stack 0
  5718  00102C                     _USBStdGetDscHandler:
  5719                           	opt stack 23
  5720                           
  5721                           ;usb_device.c: 2064: if(SetupPkt.bmRequestType == 0x80)
  5722                           
  5723                           ; BSR set to: 0
  5724                           ;incstack = 0
  5725  00102C  0104               	movlb	4	; () banked
  5726  00102E  5120               	movf	32,w,b	;volatile
  5727  001030  0A80               	xorlw	128
  5728  001032  A4D8               	btfss	status,2,c
  5729  001034  D099               	goto	i2l555
  5730                           
  5731                           ; BSR set to: 4
  5732                           ;usb_device.c: 2065: {
  5733                           ;usb_device.c: 2066: inPipes[0].info.Val = 0x00 | 0x80 | 0x40;
  5734  001036  0EC0               	movlw	192
  5735  001038  0100               	movlb	0	; () banked
  5736  00103A  6F7C               	movwf	(_inPipes+3)& (0+255),b	;volatile
  5737                           
  5738                           ;usb_device.c: 2068: switch(SetupPkt.bDescriptorType)
  5739  00103C  D089               	goto	i2l3018
  5740  00103E                     i2l2994:
  5741                           
  5742                           ;usb_device.c: 2074: inPipes[0].pSrc.bRom = (const uint8_t*)&device_dsc;
  5743  00103E  0E08               	movlw	high _device_dsc
  5744  001040  0100               	movlb	0	; () banked
  5745  001042  6F7A               	movwf	(_inPipes+1)& (0+255),b	;volatile
  5746  001044  0EB1               	movlw	low _device_dsc
  5747  001046  0100               	movlb	0	; () banked
  5748  001048  6F79               	movwf	_inPipes& (0+255),b	;volatile
  5749                           
  5750                           ; BSR set to: 0
  5751                           ;usb_device.c: 2076: inPipes[0].wCount.Val = sizeof(device_dsc);
  5752  00104A  0E00               	movlw	0
  5753  00104C  0100               	movlb	0	; () banked
  5754  00104E  6F7E               	movwf	(_inPipes+5)& (0+255),b	;volatile
  5755  001050  0E12               	movlw	18
  5756  001052  0100               	movlb	0	; () banked
  5757  001054  6F7D               	movwf	(_inPipes+4)& (0+255),b	;volatile
  5758                           
  5759                           ;usb_device.c: 2077: break;
  5760  001056  D088               	goto	i2l555
  5761  001058                     i2l548:
  5762                           
  5763                           ; BSR set to: 4
  5764                           ;usb_device.c: 2082: if(SetupPkt.bDscIndex < 1)
  5765  001058  0104               	movlb	4	; () banked
  5766  00105A  6722               	tstfsz	34,b	;volatile
  5767  00105C  D075               	goto	i2l3014
  5768                           
  5769                           ; BSR set to: 4
  5770                           ;usb_device.c: 2083: {
  5771                           ;usb_device.c: 2087: inPipes[0].pSrc.bRom = *(USB_CD_Ptr+SetupPkt.bDscIndex);
  5772  00105E  0104               	movlb	4	; () banked
  5773  001060  5122               	movf	34,w,b	;volatile
  5774  001062  0D02               	mullw	2
  5775  001064  0E07               	movlw	low _USB_CD_Ptr
  5776  001066  24F3               	addwf	prodl,w,c
  5777  001068  6EF6               	movwf	tblptrl,c
  5778  00106A  0E08               	movlw	high _USB_CD_Ptr
  5779  00106C  20F4               	addwfc	prodh,w,c
  5780  00106E  6EF7               	movwf	tblptrh,c
  5781  001070                     	if	0	;There are less than 3 active tblptr bytes
  5782  001070                     	endif
  5783  001070  0009               	tblrd		*+
  5784  001072  0100               	movlb	0	; () banked
  5785  001074  CFF5 F079          	movff	tablat,_inPipes	;volatile
  5786  001078  000A               	tblrd		*-
  5787  00107A  0100               	movlb	0	; () banked
  5788  00107C  CFF5 F07A          	movff	tablat,_inPipes+1	;volatile
  5789                           
  5790                           ; BSR set to: 0
  5791                           ;usb_device.c: 2093: inPipes[0].wCount.byte.LB = *(inPipes[0].pSrc.bRom+2);
  5792  001080  0E02               	movlw	2
  5793  001082  0100               	movlb	0	; () banked
  5794  001084  2579               	addwf	_inPipes& (0+255),w,b	;volatile
  5795  001086  6E01               	movwf	??_USBStdGetDscHandler& (0+255),c
  5796  001088  0E00               	movlw	0
  5797  00108A  0100               	movlb	0	; () banked
  5798  00108C  217A               	addwfc	(_inPipes+1)& (0+255),w,b	;volatile
  5799  00108E  6E02               	movwf	(??_USBStdGetDscHandler+1)& (0+255),c
  5800  001090  C001  FFF6         	movff	??_USBStdGetDscHandler,tblptrl
  5801  001094  C002  FFF7         	movff	??_USBStdGetDscHandler+1,tblptrh
  5802  001098  6AF8               	clrf	tblptru,c
  5803  00109A  0E07               	movlw	(high __ramtop+-1)
  5804  00109C  64F7               	cpfsgt	tblptrh,c
  5805  00109E  D003               	bra	i2u196_47
  5806  0010A0  0008               	tblrd		*
  5807  0010A2  50F5               	movf	tablat,w,c
  5808  0010A4  D005               	bra	i2u196_40
  5809  0010A6                     i2u196_47:
  5810  0010A6  CFF6 FFE9          	movff	tblptrl,fsr0l
  5811  0010AA  CFF7 FFEA          	movff	tblptrh,fsr0h
  5812  0010AE  50EF               	movf	indf0,w,c
  5813  0010B0                     i2u196_40:
  5814  0010B0  0100               	movlb	0	; () banked
  5815  0010B2  6F7D               	movwf	(_inPipes+4)& (0+255),b	;volatile
  5816                           
  5817                           ; BSR set to: 0
  5818                           ;usb_device.c: 2094: inPipes[0].wCount.byte.HB = *(inPipes[0].pSrc.bRom+3);
  5819  0010B4  0E03               	movlw	3
  5820  0010B6  0100               	movlb	0	; () banked
  5821  0010B8  2579               	addwf	_inPipes& (0+255),w,b	;volatile
  5822  0010BA  6E01               	movwf	??_USBStdGetDscHandler& (0+255),c
  5823  0010BC  0E00               	movlw	0
  5824  0010BE  0100               	movlb	0	; () banked
  5825  0010C0  217A               	addwfc	(_inPipes+1)& (0+255),w,b	;volatile
  5826  0010C2  6E02               	movwf	(??_USBStdGetDscHandler+1)& (0+255),c
  5827  0010C4  C001  FFF6         	movff	??_USBStdGetDscHandler,tblptrl
  5828  0010C8  C002  FFF7         	movff	??_USBStdGetDscHandler+1,tblptrh
  5829  0010CC  6AF8               	clrf	tblptru,c
  5830  0010CE  0E07               	movlw	(high __ramtop+-1)
  5831  0010D0  64F7               	cpfsgt	tblptrh,c
  5832  0010D2  D003               	bra	i2u197_47
  5833  0010D4  0008               	tblrd		*
  5834  0010D6  50F5               	movf	tablat,w,c
  5835  0010D8  D005               	bra	i2u197_40
  5836  0010DA                     i2u197_47:
  5837  0010DA  CFF6 FFE9          	movff	tblptrl,fsr0l
  5838  0010DE  CFF7 FFEA          	movff	tblptrh,fsr0h
  5839  0010E2  50EF               	movf	indf0,w,c
  5840  0010E4                     i2u197_40:
  5841  0010E4  0100               	movlb	0	; () banked
  5842  0010E6  6F7E               	movwf	(_inPipes+5)& (0+255),b	;volatile
  5843                           
  5844                           ;usb_device.c: 2095: }
  5845  0010E8  D03F               	goto	i2l555
  5846  0010EA                     i2l3006:
  5847                           
  5848                           ;usb_device.c: 2105: if(SetupPkt.bDscIndex<3)
  5849  0010EA  0E03               	movlw	3
  5850  0010EC  0104               	movlb	4	; () banked
  5851  0010EE  5D22               	subwf	34,w,b	;volatile
  5852  0010F0  B0D8               	btfsc	status,0,c
  5853  0010F2  D02A               	goto	i2l3014
  5854                           
  5855                           ; BSR set to: 4
  5856                           ;usb_device.c: 2106: {
  5857                           ;usb_device.c: 2108: inPipes[0].pSrc.bRom = *(USB_SD_Ptr+SetupPkt.bDscIndex);
  5858  0010F4  0104               	movlb	4	; () banked
  5859  0010F6  5122               	movf	34,w,b	;volatile
  5860  0010F8  0D02               	mullw	2
  5861  0010FA  0E01               	movlw	low _USB_SD_Ptr
  5862  0010FC  24F3               	addwf	prodl,w,c
  5863  0010FE  6EF6               	movwf	tblptrl,c
  5864  001100  0E08               	movlw	high _USB_SD_Ptr
  5865  001102  20F4               	addwfc	prodh,w,c
  5866  001104  6EF7               	movwf	tblptrh,c
  5867  001106                     	if	0	;There are less than 3 active tblptr bytes
  5868  001106                     	endif
  5869  001106  0009               	tblrd		*+
  5870  001108  0100               	movlb	0	; () banked
  5871  00110A  CFF5 F079          	movff	tablat,_inPipes	;volatile
  5872  00110E  000A               	tblrd		*-
  5873  001110  0100               	movlb	0	; () banked
  5874  001112  CFF5 F07A          	movff	tablat,_inPipes+1	;volatile
  5875                           
  5876                           ; BSR set to: 0
  5877                           ;usb_device.c: 2110: inPipes[0].wCount.Val = *inPipes[0].pSrc.bRom;
  5878  001116  0100               	movlb	0	; () banked
  5879  001118  C079  FFF6         	movff	_inPipes,tblptrl	;volatile
  5880  00111C  0100               	movlb	0	; () banked
  5881  00111E  C07A  FFF7         	movff	_inPipes+1,tblptrh	;volatile
  5882  001122  6AF8               	clrf	tblptru,c
  5883  001124  0E07               	movlw	(high __ramtop+-1)
  5884  001126  64F7               	cpfsgt	tblptrh,c
  5885  001128  D003               	bra	i2u199_47
  5886  00112A  0008               	tblrd		*
  5887  00112C  50F5               	movf	tablat,w,c
  5888  00112E  D005               	bra	i2u199_40
  5889  001130                     i2u199_47:
  5890  001130  CFF6 FFE9          	movff	tblptrl,fsr0l
  5891  001134  CFF7 FFEA          	movff	tblptrh,fsr0h
  5892  001138  50EF               	movf	indf0,w,c
  5893  00113A                     i2u199_40:
  5894  00113A  6E01               	movwf	??_USBStdGetDscHandler& (0+255),c
  5895  00113C  5001               	movf	??_USBStdGetDscHandler,w,c
  5896  00113E  0100               	movlb	0	; () banked
  5897  001140  6F7D               	movwf	(_inPipes+4)& (0+255),b	;volatile
  5898  001142  0100               	movlb	0	; () banked
  5899  001144  6B7E               	clrf	(_inPipes+5)& (0+255),b	;volatile
  5900                           
  5901                           ;usb_device.c: 2111: }
  5902  001146  D010               	goto	i2l555
  5903  001148                     i2l3014:
  5904                           
  5905                           ;usb_device.c: 2127: inPipes[0].info.Val = 0;
  5906  001148  0E00               	movlw	0
  5907  00114A  0100               	movlb	0	; () banked
  5908  00114C  6F7C               	movwf	(_inPipes+3)& (0+255),b	;volatile
  5909                           
  5910                           ;usb_device.c: 2128: break;
  5911  00114E  D00C               	goto	i2l555
  5912  001150                     i2l3018:
  5913                           
  5914                           ; BSR set to: 0
  5915  001150  0104               	movlb	4	; () banked
  5916  001152  5123               	movf	35,w,b	;volatile
  5917                           
  5918                           ; Switch size 1, requested type "space"
  5919                           ; Number of cases is 3, Range of values is 1 to 3
  5920                           ; switch strategies available:
  5921                           ; Name         Instructions Cycles
  5922                           ; simple_byte           10     6 (average)
  5923                           ;	Chosen strategy is simple_byte
  5924  001154  0A01               	xorlw	1	; case 1
  5925  001156  B4D8               	btfsc	status,2,c
  5926  001158  D772               	goto	i2l2994
  5927  00115A  0A03               	xorlw	3	; case 2
  5928  00115C  B4D8               	btfsc	status,2,c
  5929  00115E  D77C               	goto	i2l548
  5930  001160  0A01               	xorlw	1	; case 3
  5931  001162  B4D8               	btfsc	status,2,c
  5932  001164  D7C2               	goto	i2l3006
  5933  001166  D7F0               	goto	i2l3014
  5934  001168                     i2l555:
  5935  001168  0012               	return	
  5936  00116A                     __end_of_USBStdGetDscHandler:
  5937                           	opt stack 0
  5938                           pclatu	equ	0xFFB
  5939                           pclath	equ	0xFFA
  5940                           tblptru	equ	0xFF8
  5941                           tblptrh	equ	0xFF7
  5942                           tblptrl	equ	0xFF6
  5943                           tablat	equ	0xFF5
  5944                           prodh	equ	0xFF4
  5945                           prodl	equ	0xFF3
  5946                           intcon	equ	0xFF2
  5947                           indf0	equ	0xFEF
  5948                           postinc0	equ	0xFEE
  5949                           fsr0h	equ	0xFEA
  5950                           fsr0l	equ	0xFE9
  5951                           wreg	equ	0xFE8
  5952                           indf1	equ	0xFE7
  5953                           fsr1h	equ	0xFE2
  5954                           fsr1l	equ	0xFE1
  5955                           indf2	equ	0xFDF
  5956                           postinc2	equ	0xFDE
  5957                           postdec2	equ	0xFDD
  5958                           plusw2	equ	0xFDB
  5959                           fsr2h	equ	0xFDA
  5960                           fsr2l	equ	0xFD9
  5961                           status	equ	0xFD8
  5962                           
  5963 ;; *************** function _USBStdFeatureReqHandler *****************
  5964 ;; Defined at:
  5965 ;;		line 2779 in file "../src/usb_device.c"
  5966 ;; Parameters:    Size  Location     Type
  5967 ;;		None
  5968 ;; Auto vars:     Size  Location     Type
  5969 ;;  p               2   28[COMRAM] PTR struct __BDT
  5970 ;;		 -> BDT(32), NULL(0), 
  5971 ;;  pUEP            2   25[COMRAM] PTR unsigned char 
  5972 ;;		 -> UEP0(1), 
  5973 ;;  current_ep_d    1   27[COMRAM] struct .
  5974 ;; Return value:  Size  Location     Type
  5975 ;;		None               void
  5976 ;; Registers used:
  5977 ;;		wreg, fsr2l, fsr2h, status,2, status,0, prodl, prodh, cstack
  5978 ;; Tracked objects:
  5979 ;;		On entry : 0/0
  5980 ;;		On exit  : 0/0
  5981 ;;		Unchanged: 0/0
  5982 ;; Data sizes:     COMRAM   BANK0   BANK1   BANK2   BANK3   BANK4   BANK5   BANK6   BANK7
  5983 ;;      Params:         0       0       0       0       0       0       0       0       0
  5984 ;;      Locals:         5       0       0       0       0       0       0       0       0
  5985 ;;      Temps:          3       0       0       0       0       0       0       0       0
  5986 ;;      Totals:         8       0       0       0       0       0       0       0       0
  5987 ;;Total ram usage:        8 bytes
  5988 ;; Hardware stack levels used:    1
  5989 ;; Hardware stack levels required when called:    4
  5990 ;; This function calls:
  5991 ;;		_USER_USB_CALLBACK_EVENT_HANDLER
  5992 ;; This function is called by:
  5993 ;;		_USBCheckStdRequest
  5994 ;; This function uses a non-reentrant model
  5995 ;;
  5996                           
  5997                           	psect	text30
  5998  0008C8                     __ptext30:
  5999                           	opt stack 0
  6000  0008C8                     _USBStdFeatureReqHandler:
  6001                           	opt stack 19
  6002                           
  6003                           ;usb_device.c: 2781: BDT_ENTRY *p;
  6004                           ;usb_device.c: 2782: EP_STATUS current_ep_data;
  6005                           ;usb_device.c: 2786: unsigned char* pUEP;
  6006                           ;usb_device.c: 2824: if((SetupPkt.bFeature == 1)&&
  6007                           ;usb_device.c: 2825: (SetupPkt.Recipient == (0x00)))
  6008                           
  6009                           ;incstack = 0
  6010  0008C8  0104               	movlb	4	; () banked
  6011  0008CA  0522               	decf	34,w,b	;volatile
  6012  0008CC  A4D8               	btfss	status,2,c
  6013  0008CE  D011               	goto	i2l3060
  6014                           
  6015                           ; BSR set to: 4
  6016  0008D0  0104               	movlb	4	; () banked
  6017  0008D2  5120               	movf	32,w,b	;volatile
  6018  0008D4  0B1F               	andlw	31
  6019  0008D6  0900               	iorlw	0
  6020  0008D8  A4D8               	btfss	status,2,c
  6021  0008DA  D00B               	goto	i2l3060
  6022                           
  6023                           ; BSR set to: 4
  6024                           ;usb_device.c: 2826: {
  6025                           ;usb_device.c: 2827: inPipes[0].info.bits.busy = 1;
  6026  0008DC  0100               	movlb	0	; () banked
  6027  0008DE  8F7C               	bsf	(_inPipes+3)& (0+255),7,b	;volatile
  6028                           
  6029                           ; BSR set to: 0
  6030                           ;usb_device.c: 2828: if(SetupPkt.bRequest == 3)
  6031  0008E0  0104               	movlb	4	; () banked
  6032  0008E2  5121               	movf	33,w,b	;volatile
  6033  0008E4  0A03               	xorlw	3
  6034  0008E6  A4D8               	btfss	status,2,c
  6035  0008E8  D002               	goto	i2l3058
  6036                           
  6037                           ; BSR set to: 4
  6038                           ;usb_device.c: 2829: RemoteWakeup = 1;
  6039  0008EA  0E01               	movlw	1
  6040  0008EC  D001               	goto	L18
  6041  0008EE                     i2l3058:
  6042                           
  6043                           ; BSR set to: 4
  6044                           ;usb_device.c: 2830: else
  6045                           ;usb_device.c: 2831: RemoteWakeup = 0;
  6046  0008EE  0E00               	movlw	0
  6047  0008F0                     L18:
  6048  0008F0  6E40               	movwf	_RemoteWakeup,c	;volatile
  6049  0008F2                     i2l3060:
  6050                           
  6051                           ; BSR set to: 4
  6052                           ;usb_device.c: 2832: }
  6053                           ;usb_device.c: 2835: if((SetupPkt.bFeature == 0)&&
  6054                           ;usb_device.c: 2836: (SetupPkt.Recipient == (0x02))&&
  6055                           ;usb_device.c: 2837: (SetupPkt.EPNum != 0) && (SetupPkt.EPNum <= 1)&&
  6056                           ;usb_device.c: 2838: (USBDeviceState == CONFIGURED_STATE))
  6057  0008F2  0104               	movlb	4	; () banked
  6058  0008F4  6722               	tstfsz	34,b	;volatile
  6059  0008F6  D144               	goto	i2l661
  6060                           
  6061                           ; BSR set to: 4
  6062  0008F8  0104               	movlb	4	; () banked
  6063  0008FA  5120               	movf	32,w,b	;volatile
  6064  0008FC  0B1F               	andlw	31
  6065  0008FE  0A02               	xorlw	2
  6066  000900  A4D8               	btfss	status,2,c
  6067  000902  D13E               	goto	i2l661
  6068                           
  6069                           ; BSR set to: 4
  6070  000904  0104               	movlb	4	; () banked
  6071  000906  5124               	movf	36,w,b	;volatile
  6072  000908  0B0F               	andlw	15
  6073  00090A  0900               	iorlw	0
  6074  00090C  B4D8               	btfsc	status,2,c
  6075  00090E  D138               	goto	i2l661
  6076                           
  6077                           ; BSR set to: 4
  6078  000910  0104               	movlb	4	; () banked
  6079  000912  5124               	movf	36,w,b	;volatile
  6080  000914  0B0F               	andlw	15
  6081  000916  6E17               	movwf	??_USBStdFeatureReqHandler& (0+255),c
  6082  000918  0E02               	movlw	2
  6083  00091A  5C17               	subwf	??_USBStdFeatureReqHandler,w,c
  6084  00091C  B0D8               	btfsc	status,0,c
  6085  00091E  D130               	goto	i2l661
  6086                           
  6087                           ; BSR set to: 4
  6088  000920  0100               	movlb	0	; () banked
  6089  000922  5178               	movf	_USBDeviceState& (0+255),w,b	;volatile
  6090  000924  0A20               	xorlw	32
  6091  000926  A4D8               	btfss	status,2,c
  6092  000928  D12B               	goto	i2l661
  6093                           
  6094                           ; BSR set to: 0
  6095                           ;usb_device.c: 2839: {
  6096                           ;usb_device.c: 2842: inPipes[0].info.bits.busy = 1;
  6097  00092A  0100               	movlb	0	; () banked
  6098  00092C  8F7C               	bsf	(_inPipes+3)& (0+255),7,b	;volatile
  6099                           
  6100                           ;usb_device.c: 2845: if(SetupPkt.EPDir == 0)
  6101  00092E  0104               	movlb	4	; () banked
  6102  000930  BF24               	btfsc	36,7,b	;volatile
  6103  000932  D01F               	goto	i2l3074
  6104                           
  6105                           ; BSR set to: 4
  6106                           ;usb_device.c: 2846: {
  6107                           ;usb_device.c: 2847: p = (BDT_ENTRY*)pBDTEntryOut[SetupPkt.EPNum];
  6108  000934  0104               	movlb	4	; () banked
  6109  000936  5124               	movf	36,w,b	;volatile
  6110  000938  0B0F               	andlw	15
  6111  00093A  6E17               	movwf	??_USBStdFeatureReqHandler& (0+255),c
  6112  00093C  5017               	movf	??_USBStdFeatureReqHandler,w,c
  6113  00093E  0D02               	mullw	2
  6114  000940  0100               	movlb	0	; () banked
  6115  000942  0E6C               	movlw	low _pBDTEntryOut
  6116  000944  24F3               	addwf	prodl,w,c
  6117  000946  6ED9               	movwf	fsr2l,c
  6118  000948  0100               	movlb	0	; () banked
  6119  00094A  0E00               	movlw	high _pBDTEntryOut
  6120  00094C  20F4               	addwfc	prodh,w,c
  6121  00094E  6EDA               	movwf	fsr2h,c
  6122  000950  CFDE F01D          	movff	postinc2,USBStdFeatureReqHandler@p
  6123  000954  CFDD F01E          	movff	postdec2,USBStdFeatureReqHandler@p+1
  6124                           
  6125                           ;usb_device.c: 2848: current_ep_data.Val = ep_data_out[SetupPkt.EPNum].Val;
  6126  000958  0104               	movlb	4	; () banked
  6127  00095A  5124               	movf	36,w,b	;volatile
  6128  00095C  0B0F               	andlw	15
  6129  00095E  6E17               	movwf	??_USBStdFeatureReqHandler& (0+255),c
  6130  000960  5017               	movf	??_USBStdFeatureReqHandler,w,c
  6131  000962  0D01               	mullw	1
  6132  000964  0100               	movlb	0	; () banked
  6133  000966  0E76               	movlw	low _ep_data_out	;volatile
  6134  000968  24F3               	addwf	prodl,w,c
  6135  00096A  6ED9               	movwf	fsr2l,c
  6136  00096C  0100               	movlb	0	; () banked
  6137  00096E  0E00               	movlw	high _ep_data_out	;volatile
  6138  000970  D01E               	goto	L19
  6139  000972                     i2l3074:
  6140                           
  6141                           ;usb_device.c: 2850: else
  6142                           ;usb_device.c: 2851: {
  6143                           ;usb_device.c: 2852: p = (BDT_ENTRY*)pBDTEntryIn[SetupPkt.EPNum];
  6144  000972  0104               	movlb	4	; () banked
  6145  000974  5124               	movf	36,w,b	;volatile
  6146  000976  0B0F               	andlw	15
  6147  000978  6E17               	movwf	??_USBStdFeatureReqHandler& (0+255),c
  6148  00097A  5017               	movf	??_USBStdFeatureReqHandler,w,c
  6149  00097C  0D02               	mullw	2
  6150  00097E  0100               	movlb	0	; () banked
  6151  000980  0E68               	movlw	low _pBDTEntryIn
  6152  000982  24F3               	addwf	prodl,w,c
  6153  000984  6ED9               	movwf	fsr2l,c
  6154  000986  0100               	movlb	0	; () banked
  6155  000988  0E00               	movlw	high _pBDTEntryIn
  6156  00098A  20F4               	addwfc	prodh,w,c
  6157  00098C  6EDA               	movwf	fsr2h,c
  6158  00098E  CFDE F01D          	movff	postinc2,USBStdFeatureReqHandler@p
  6159  000992  CFDD F01E          	movff	postdec2,USBStdFeatureReqHandler@p+1
  6160                           
  6161                           ;usb_device.c: 2853: current_ep_data.Val = ep_data_in[SetupPkt.EPNum].Val;
  6162  000996  0104               	movlb	4	; () banked
  6163  000998  5124               	movf	36,w,b	;volatile
  6164  00099A  0B0F               	andlw	15
  6165  00099C  6E17               	movwf	??_USBStdFeatureReqHandler& (0+255),c
  6166  00099E  5017               	movf	??_USBStdFeatureReqHandler,w,c
  6167  0009A0  0D01               	mullw	1
  6168  0009A2  0100               	movlb	0	; () banked
  6169  0009A4  0E74               	movlw	low _ep_data_in	;volatile
  6170  0009A6  24F3               	addwf	prodl,w,c
  6171  0009A8  6ED9               	movwf	fsr2l,c
  6172  0009AA  0100               	movlb	0	; () banked
  6173  0009AC  0E00               	movlw	high _ep_data_in	;volatile
  6174  0009AE                     L19:
  6175  0009AE  20F4               	addwfc	prodh,w,c
  6176  0009B0  6EDA               	movwf	fsr2h,c
  6177  0009B2  50DF               	movf	indf2,w,c
  6178  0009B4  6E1C               	movwf	USBStdFeatureReqHandler@current_ep_data,c
  6179                           
  6180                           ; BSR set to: 0
  6181                           ;usb_device.c: 2854: }
  6182                           ;usb_device.c: 2860: if(current_ep_data.bits.ping_pong_state == 0)
  6183                           
  6184                           ; BSR set to: 0
  6185  0009B6  B01C               	btfsc	USBStdFeatureReqHandler@current_ep_data,0,c
  6186  0009B8  D002               	goto	i2l3080
  6187                           
  6188                           ; BSR set to: 0
  6189                           ;usb_device.c: 2861: {
  6190                           ;usb_device.c: 2862: {((uint8_t_VAL*)&p)->Val &= ~0x0004;};
  6191  0009BA  941D               	bcf	USBStdFeatureReqHandler@p,2,c
  6192                           
  6193                           ;usb_device.c: 2863: }
  6194  0009BC  D001               	goto	i2l3082
  6195  0009BE                     i2l3080:
  6196                           
  6197                           ; BSR set to: 0
  6198                           ;usb_device.c: 2864: else
  6199                           ;usb_device.c: 2865: {
  6200                           ;usb_device.c: 2866: {((uint8_t_VAL*)&p)->Val |= 0x0004;};
  6201  0009BE  841D               	bsf	USBStdFeatureReqHandler@p,2,c
  6202  0009C0                     i2l3082:
  6203                           
  6204                           ; BSR set to: 0
  6205                           ;usb_device.c: 2867: }
  6206                           ;usb_device.c: 2872: if(SetupPkt.EPDir == 0)
  6207  0009C0  0104               	movlb	4	; () banked
  6208  0009C2  BF24               	btfsc	36,7,b	;volatile
  6209  0009C4  D00D               	goto	i2l3086
  6210                           
  6211                           ; BSR set to: 4
  6212                           ;usb_device.c: 2873: {
  6213                           ;usb_device.c: 2874: pBDTEntryOut[SetupPkt.EPNum] = (volatile BDT_ENTRY *)p;
  6214  0009C6  0104               	movlb	4	; () banked
  6215  0009C8  5124               	movf	36,w,b	;volatile
  6216  0009CA  0B0F               	andlw	15
  6217  0009CC  6E17               	movwf	??_USBStdFeatureReqHandler& (0+255),c
  6218  0009CE  5017               	movf	??_USBStdFeatureReqHandler,w,c
  6219  0009D0  0D02               	mullw	2
  6220  0009D2  0100               	movlb	0	; () banked
  6221  0009D4  0E6C               	movlw	low _pBDTEntryOut
  6222  0009D6  24F3               	addwf	prodl,w,c
  6223  0009D8  6ED9               	movwf	fsr2l,c
  6224  0009DA  0100               	movlb	0	; () banked
  6225  0009DC  0E00               	movlw	high _pBDTEntryOut
  6226  0009DE  D00C               	goto	L20
  6227  0009E0                     i2l3086:
  6228                           
  6229                           ;usb_device.c: 2876: else
  6230                           ;usb_device.c: 2877: {
  6231                           ;usb_device.c: 2878: pBDTEntryIn[SetupPkt.EPNum] = (volatile BDT_ENTRY *)p;
  6232  0009E0  0104               	movlb	4	; () banked
  6233  0009E2  5124               	movf	36,w,b	;volatile
  6234  0009E4  0B0F               	andlw	15
  6235  0009E6  6E17               	movwf	??_USBStdFeatureReqHandler& (0+255),c
  6236  0009E8  5017               	movf	??_USBStdFeatureReqHandler,w,c
  6237  0009EA  0D02               	mullw	2
  6238  0009EC  0100               	movlb	0	; () banked
  6239  0009EE  0E68               	movlw	low _pBDTEntryIn
  6240  0009F0  24F3               	addwf	prodl,w,c
  6241  0009F2  6ED9               	movwf	fsr2l,c
  6242  0009F4  0100               	movlb	0	; () banked
  6243  0009F6  0E00               	movlw	high _pBDTEntryIn
  6244  0009F8                     L20:
  6245  0009F8  20F4               	addwfc	prodh,w,c
  6246  0009FA  6EDA               	movwf	fsr2h,c
  6247  0009FC  C01D  FFDE         	movff	USBStdFeatureReqHandler@p,postinc2
  6248  000A00  C01E  FFDD         	movff	USBStdFeatureReqHandler@p+1,postdec2
  6249                           
  6250                           ; BSR set to: 0
  6251                           ;usb_device.c: 2879: }
  6252                           ;usb_device.c: 2882: if(SetupPkt.bRequest == 3)
  6253                           
  6254                           ; BSR set to: 0
  6255  000A04  0104               	movlb	4	; () banked
  6256  000A06  5121               	movf	33,w,b	;volatile
  6257  000A08  0A03               	xorlw	3
  6258  000A0A  A4D8               	btfss	status,2,c
  6259  000A0C  D033               	goto	i2l3102
  6260                           
  6261                           ; BSR set to: 4
  6262                           ;usb_device.c: 2883: {
  6263                           ;usb_device.c: 2884: if(p->STAT.UOWN == 1)
  6264  000A0E  C01D  FFD9         	movff	USBStdFeatureReqHandler@p,fsr2l
  6265  000A12  C01E  FFDA         	movff	USBStdFeatureReqHandler@p+1,fsr2h
  6266  000A16  AEDF               	btfss	indf2,7,c
  6267  000A18  D020               	goto	i2l3098
  6268                           
  6269                           ; BSR set to: 4
  6270                           ;usb_device.c: 2885: {
  6271                           ;usb_device.c: 2888: if(SetupPkt.EPDir == 0)
  6272  000A1A  0104               	movlb	4	; () banked
  6273  000A1C  BF24               	btfsc	36,7,b	;volatile
  6274  000A1E  D00D               	goto	i2l3096
  6275                           
  6276                           ; BSR set to: 4
  6277                           ;usb_device.c: 2889: {
  6278                           ;usb_device.c: 2890: ep_data_out[SetupPkt.EPNum].bits.transfer_terminated = 1;
  6279  000A20  0104               	movlb	4	; () banked
  6280  000A22  5124               	movf	36,w,b	;volatile
  6281  000A24  0B0F               	andlw	15
  6282  000A26  6E17               	movwf	??_USBStdFeatureReqHandler& (0+255),c
  6283  000A28  5017               	movf	??_USBStdFeatureReqHandler,w,c
  6284  000A2A  0D01               	mullw	1
  6285  000A2C  0100               	movlb	0	; () banked
  6286  000A2E  0E76               	movlw	low _ep_data_out	;volatile
  6287  000A30  24F3               	addwf	prodl,w,c
  6288  000A32  6ED9               	movwf	fsr2l,c
  6289  000A34  0100               	movlb	0	; () banked
  6290  000A36  0E00               	movlw	high _ep_data_out	;volatile
  6291  000A38  D00C               	goto	L21
  6292  000A3A                     i2l3096:
  6293                           
  6294                           ;usb_device.c: 2892: else
  6295                           ;usb_device.c: 2893: {
  6296                           ;usb_device.c: 2894: ep_data_in[SetupPkt.EPNum].bits.transfer_terminated = 1;
  6297  000A3A  0104               	movlb	4	; () banked
  6298  000A3C  5124               	movf	36,w,b	;volatile
  6299  000A3E  0B0F               	andlw	15
  6300  000A40  6E17               	movwf	??_USBStdFeatureReqHandler& (0+255),c
  6301  000A42  5017               	movf	??_USBStdFeatureReqHandler,w,c
  6302  000A44  0D01               	mullw	1
  6303  000A46  0100               	movlb	0	; () banked
  6304  000A48  0E74               	movlw	low _ep_data_in	;volatile
  6305  000A4A  24F3               	addwf	prodl,w,c
  6306  000A4C  6ED9               	movwf	fsr2l,c
  6307  000A4E  0100               	movlb	0	; () banked
  6308  000A50  0E00               	movlw	high _ep_data_in	;volatile
  6309  000A52                     L21:
  6310  000A52  20F4               	addwfc	prodh,w,c
  6311  000A54  6EDA               	movwf	fsr2h,c
  6312  000A56  0100               	movlb	0	; () banked
  6313  000A58  82DF               	bsf	indf2,1,c
  6314  000A5A                     i2l3098:
  6315                           
  6316                           ;usb_device.c: 2895: }
  6317                           ;usb_device.c: 2896: }
  6318                           ;usb_device.c: 2899: p->STAT.Val |= 0x04;
  6319  000A5A  C01D  FFD9         	movff	USBStdFeatureReqHandler@p,fsr2l
  6320  000A5E  C01E  FFDA         	movff	USBStdFeatureReqHandler@p+1,fsr2h
  6321  000A62  0E00               	movlw	0
  6322  000A64  84DB               	bsf	plusw2,2,c
  6323                           
  6324                           ;usb_device.c: 2900: p->STAT.Val |= 0x80;
  6325  000A66  C01D  FFD9         	movff	USBStdFeatureReqHandler@p,fsr2l
  6326  000A6A  C01E  FFDA         	movff	USBStdFeatureReqHandler@p+1,fsr2h
  6327  000A6E  0E00               	movlw	0
  6328  000A70  8EDB               	bsf	plusw2,7,c
  6329                           
  6330                           ;usb_device.c: 2901: }
  6331  000A72  D086               	goto	i2l661
  6332  000A74                     i2l3102:
  6333                           
  6334                           ;usb_device.c: 2902: else
  6335                           ;usb_device.c: 2903: {
  6336                           ;usb_device.c: 2907: {((uint8_t_VAL*)&p)->Val ^= 0x0004;};
  6337  000A74  0E04               	movlw	4
  6338  000A76  1A1D               	xorwf	USBStdFeatureReqHandler@p,f,c
  6339                           
  6340                           ;usb_device.c: 2909: if(p->STAT.UOWN == 1)
  6341  000A78  C01D  FFD9         	movff	USBStdFeatureReqHandler@p,fsr2l
  6342  000A7C  C01E  FFDA         	movff	USBStdFeatureReqHandler@p+1,fsr2h
  6343  000A80  AEDF               	btfss	indf2,7,c
  6344  000A82  D01B               	goto	i2l3112
  6345                           
  6346                           ;usb_device.c: 2910: {
  6347                           ;usb_device.c: 2913: p->STAT.Val &= (~0x80);
  6348  000A84  C01D  FFD9         	movff	USBStdFeatureReqHandler@p,fsr2l
  6349  000A88  C01E  FFDA         	movff	USBStdFeatureReqHandler@p+1,fsr2h
  6350  000A8C  0E7F               	movlw	127
  6351  000A8E  16DF               	andwf	indf2,f,c
  6352                           
  6353                           ;usb_device.c: 2914: p->STAT.Val |= 0x40;
  6354  000A90  C01D  FFD9         	movff	USBStdFeatureReqHandler@p,fsr2l
  6355  000A94  C01E  FFDA         	movff	USBStdFeatureReqHandler@p+1,fsr2h
  6356  000A98  0E00               	movlw	0
  6357  000A9A  8CDB               	bsf	plusw2,6,c
  6358                           
  6359                           ;usb_device.c: 2915: USER_USB_CALLBACK_EVENT_HANDLER(EVENT_TRANSFER_TERMINATED,p,sizeof(
      +                          p));
  6360  000A9C  0E00               	movlw	0
  6361  000A9E  6E10               	movwf	USER_USB_CALLBACK_EVENT_HANDLER@event+1,c
  6362  000AA0  0E05               	movlw	5
  6363  000AA2  6E0F               	movwf	USER_USB_CALLBACK_EVENT_HANDLER@event,c
  6364  000AA4  C01E  F012         	movff	USBStdFeatureReqHandler@p+1,USER_USB_CALLBACK_EVENT_HANDLER@pdata+1
  6365  000AA8  C01D  F011         	movff	USBStdFeatureReqHandler@p,USER_USB_CALLBACK_EVENT_HANDLER@pdata
  6366  000AAC  0E00               	movlw	0
  6367  000AAE  6E14               	movwf	USER_USB_CALLBACK_EVENT_HANDLER@size+1,c
  6368  000AB0  0E02               	movlw	2
  6369  000AB2  6E13               	movwf	USER_USB_CALLBACK_EVENT_HANDLER@size,c
  6370  000AB4  ECBE  F00F         	call	_USER_USB_CALLBACK_EVENT_HANDLER	;wreg free
  6371                           
  6372                           ;usb_device.c: 2916: }
  6373  000AB8  D006               	goto	i2l3114
  6374  000ABA                     i2l3112:
  6375                           
  6376                           ;usb_device.c: 2917: else
  6377                           ;usb_device.c: 2918: {
  6378                           ;usb_device.c: 2920: p->STAT.Val |= 0x40;
  6379  000ABA  C01D  FFD9         	movff	USBStdFeatureReqHandler@p,fsr2l
  6380  000ABE  C01E  FFDA         	movff	USBStdFeatureReqHandler@p+1,fsr2h
  6381  000AC2  0E00               	movlw	0
  6382  000AC4  8CDB               	bsf	plusw2,6,c
  6383  000AC6                     i2l3114:
  6384                           
  6385                           ;usb_device.c: 2921: }
  6386                           ;usb_device.c: 2925: {((uint8_t_VAL*)&p)->Val ^= 0x0004;};
  6387  000AC6  0E04               	movlw	4
  6388  000AC8  1A1D               	xorwf	USBStdFeatureReqHandler@p,f,c
  6389                           
  6390                           ;usb_device.c: 2931: if((current_ep_data.bits.transfer_terminated != 0) || (p->STAT.UOWN
      +                           == 1))
  6391  000ACA  B21C               	btfsc	USBStdFeatureReqHandler@current_ep_data,1,c
  6392  000ACC  D006               	goto	i2l657
  6393  000ACE  C01D  FFD9         	movff	USBStdFeatureReqHandler@p,fsr2l
  6394  000AD2  C01E  FFDA         	movff	USBStdFeatureReqHandler@p+1,fsr2h
  6395  000AD6  AEDF               	btfss	indf2,7,c
  6396  000AD8  D035               	goto	i2l3128
  6397  000ADA                     i2l657:
  6398                           
  6399                           ;usb_device.c: 2932: {
  6400                           ;usb_device.c: 2933: if(SetupPkt.EPDir == 0)
  6401  000ADA  0104               	movlb	4	; () banked
  6402  000ADC  BF24               	btfsc	36,7,b	;volatile
  6403  000ADE  D00D               	goto	i2l3122
  6404                           
  6405                           ; BSR set to: 4
  6406                           ;usb_device.c: 2934: {
  6407                           ;usb_device.c: 2935: ep_data_out[SetupPkt.EPNum].bits.transfer_terminated = 0;
  6408  000AE0  0104               	movlb	4	; () banked
  6409  000AE2  5124               	movf	36,w,b	;volatile
  6410  000AE4  0B0F               	andlw	15
  6411  000AE6  6E17               	movwf	??_USBStdFeatureReqHandler& (0+255),c
  6412  000AE8  5017               	movf	??_USBStdFeatureReqHandler,w,c
  6413  000AEA  0D01               	mullw	1
  6414  000AEC  0100               	movlb	0	; () banked
  6415  000AEE  0E76               	movlw	low _ep_data_out	;volatile
  6416  000AF0  24F3               	addwf	prodl,w,c
  6417  000AF2  6ED9               	movwf	fsr2l,c
  6418  000AF4  0100               	movlb	0	; () banked
  6419  000AF6  0E00               	movlw	high _ep_data_out	;volatile
  6420  000AF8  D00C               	goto	L22
  6421  000AFA                     i2l3122:
  6422                           
  6423                           ;usb_device.c: 2937: else
  6424                           ;usb_device.c: 2938: {
  6425                           ;usb_device.c: 2939: ep_data_in[SetupPkt.EPNum].bits.transfer_terminated = 0;
  6426  000AFA  0104               	movlb	4	; () banked
  6427  000AFC  5124               	movf	36,w,b	;volatile
  6428  000AFE  0B0F               	andlw	15
  6429  000B00  6E17               	movwf	??_USBStdFeatureReqHandler& (0+255),c
  6430  000B02  5017               	movf	??_USBStdFeatureReqHandler,w,c
  6431  000B04  0D01               	mullw	1
  6432  000B06  0100               	movlb	0	; () banked
  6433  000B08  0E74               	movlw	low _ep_data_in	;volatile
  6434  000B0A  24F3               	addwf	prodl,w,c
  6435  000B0C  6ED9               	movwf	fsr2l,c
  6436  000B0E  0100               	movlb	0	; () banked
  6437  000B10  0E00               	movlw	high _ep_data_in	;volatile
  6438  000B12                     L22:
  6439  000B12  20F4               	addwfc	prodh,w,c
  6440  000B14  6EDA               	movwf	fsr2h,c
  6441  000B16  0100               	movlb	0	; () banked
  6442  000B18  92DF               	bcf	indf2,1,c
  6443                           
  6444                           ; BSR set to: 0
  6445                           ;usb_device.c: 2940: }
  6446                           ;usb_device.c: 2942: p->STAT.Val &= ~(0x80 | 0x40 | 0x04);
  6447                           
  6448                           ; BSR set to: 0
  6449  000B1A  C01D  FFD9         	movff	USBStdFeatureReqHandler@p,fsr2l
  6450  000B1E  C01E  FFDA         	movff	USBStdFeatureReqHandler@p+1,fsr2h
  6451  000B22  0E3B               	movlw	59
  6452  000B24  16DF               	andwf	indf2,f,c
  6453                           
  6454                           ; BSR set to: 0
  6455                           ;usb_device.c: 2945: USER_USB_CALLBACK_EVENT_HANDLER(EVENT_TRANSFER_TERMINATED,p,sizeof(
      +                          p));
  6456  000B26  0E00               	movlw	0
  6457  000B28  6E10               	movwf	USER_USB_CALLBACK_EVENT_HANDLER@event+1,c
  6458  000B2A  0E05               	movlw	5
  6459  000B2C  6E0F               	movwf	USER_USB_CALLBACK_EVENT_HANDLER@event,c
  6460  000B2E  C01E  F012         	movff	USBStdFeatureReqHandler@p+1,USER_USB_CALLBACK_EVENT_HANDLER@pdata+1
  6461  000B32  C01D  F011         	movff	USBStdFeatureReqHandler@p,USER_USB_CALLBACK_EVENT_HANDLER@pdata
  6462  000B36  0E00               	movlw	0
  6463  000B38  6E14               	movwf	USER_USB_CALLBACK_EVENT_HANDLER@size+1,c
  6464  000B3A  0E02               	movlw	2
  6465  000B3C  6E13               	movwf	USER_USB_CALLBACK_EVENT_HANDLER@size,c
  6466  000B3E  ECBE  F00F         	call	_USER_USB_CALLBACK_EVENT_HANDLER	;wreg free
  6467                           
  6468                           ;usb_device.c: 2946: }
  6469  000B42  D006               	goto	i2l3130
  6470  000B44                     i2l3128:
  6471                           
  6472                           ;usb_device.c: 2947: else
  6473                           ;usb_device.c: 2948: {
  6474                           ;usb_device.c: 2950: p->STAT.Val &= ~(0x80 | 0x40 | 0x04);
  6475  000B44  C01D  FFD9         	movff	USBStdFeatureReqHandler@p,fsr2l
  6476  000B48  C01E  FFDA         	movff	USBStdFeatureReqHandler@p+1,fsr2h
  6477  000B4C  0E3B               	movlw	59
  6478  000B4E  16DF               	andwf	indf2,f,c
  6479  000B50                     i2l3130:
  6480                           
  6481                           ;usb_device.c: 2951: }
  6482                           ;usb_device.c: 2998: pUEP = (unsigned char*)(&UEP0+SetupPkt.EPNum);
  6483  000B50  0104               	movlb	4	; () banked
  6484  000B52  5124               	movf	36,w,b	;volatile
  6485  000B54  0B0F               	andlw	15
  6486  000B56  6E17               	movwf	??_USBStdFeatureReqHandler& (0+255),c
  6487  000B58  5017               	movf	??_USBStdFeatureReqHandler,w,c
  6488  000B5A  0D01               	mullw	1
  6489  000B5C  0E70               	movlw	112	;volatile
  6490  000B5E  6E18               	movwf	(??_USBStdFeatureReqHandler+1)& (0+255),c
  6491  000B60  0E0F               	movlw	15	;volatile
  6492  000B62  6E19               	movwf	(??_USBStdFeatureReqHandler+2)& (0+255),c
  6493  000B64  50F3               	movf	prodl,w,c
  6494  000B66  2618               	addwf	??_USBStdFeatureReqHandler+1,f,c
  6495  000B68  50F4               	movf	prodh,w,c
  6496  000B6A  2219               	addwfc	??_USBStdFeatureReqHandler+2,f,c
  6497  000B6C  C018  F01A         	movff	??_USBStdFeatureReqHandler+1,USBStdFeatureReqHandler@pUEP
  6498  000B70  C019  F01B         	movff	??_USBStdFeatureReqHandler+2,USBStdFeatureReqHandler@pUEP+1
  6499                           
  6500                           ; BSR set to: 4
  6501                           ;usb_device.c: 3002: *pUEP &= ~0x0001;
  6502  000B74  C01A  FFD9         	movff	USBStdFeatureReqHandler@pUEP,fsr2l
  6503  000B78  C01B  FFDA         	movff	USBStdFeatureReqHandler@pUEP+1,fsr2h
  6504  000B7C  0EFE               	movlw	254
  6505  000B7E  16DF               	andwf	indf2,f,c
  6506  000B80                     i2l661:
  6507  000B80  0012               	return	
  6508  000B82                     __end_of_USBStdFeatureReqHandler:
  6509                           	opt stack 0
  6510                           pclatu	equ	0xFFB
  6511                           pclath	equ	0xFFA
  6512                           tblptru	equ	0xFF8
  6513                           tblptrh	equ	0xFF7
  6514                           tblptrl	equ	0xFF6
  6515                           tablat	equ	0xFF5
  6516                           prodh	equ	0xFF4
  6517                           prodl	equ	0xFF3
  6518                           intcon	equ	0xFF2
  6519                           indf0	equ	0xFEF
  6520                           postinc0	equ	0xFEE
  6521                           fsr0h	equ	0xFEA
  6522                           fsr0l	equ	0xFE9
  6523                           wreg	equ	0xFE8
  6524                           indf1	equ	0xFE7
  6525                           fsr1h	equ	0xFE2
  6526                           fsr1l	equ	0xFE1
  6527                           indf2	equ	0xFDF
  6528                           postinc2	equ	0xFDE
  6529                           postdec2	equ	0xFDD
  6530                           plusw2	equ	0xFDB
  6531                           fsr2h	equ	0xFDA
  6532                           fsr2l	equ	0xFD9
  6533                           status	equ	0xFD8
  6534                           
  6535 ;; *************** function _USER_USB_CALLBACK_EVENT_HANDLER *****************
  6536 ;; Defined at:
  6537 ;;		line 88 in file "../src/main.c"
  6538 ;; Parameters:    Size  Location     Type
  6539 ;;  event           2   14[COMRAM] enum E5521
  6540 ;;  pdata           2   16[COMRAM] PTR void 
  6541 ;;		 -> USTATcopy(1), USBActiveConfiguration(1), BDT(32), NULL(0), 
  6542 ;;  size            2   18[COMRAM] unsigned int 
  6543 ;; Auto vars:     Size  Location     Type
  6544 ;;		None
  6545 ;; Return value:  Size  Location     Type
  6546 ;;                  1    wreg      unsigned char 
  6547 ;; Registers used:
  6548 ;;		wreg, fsr2l, fsr2h, status,2, status,0, prodl, prodh, cstack
  6549 ;; Tracked objects:
  6550 ;;		On entry : 0/0
  6551 ;;		On exit  : 0/0
  6552 ;;		Unchanged: 0/0
  6553 ;; Data sizes:     COMRAM   BANK0   BANK1   BANK2   BANK3   BANK4   BANK5   BANK6   BANK7
  6554 ;;      Params:         6       0       0       0       0       0       0       0       0
  6555 ;;      Locals:         0       0       0       0       0       0       0       0       0
  6556 ;;      Temps:          2       0       0       0       0       0       0       0       0
  6557 ;;      Totals:         8       0       0       0       0       0       0       0       0
  6558 ;;Total ram usage:        8 bytes
  6559 ;; Hardware stack levels used:    1
  6560 ;; Hardware stack levels required when called:    3
  6561 ;; This function calls:
  6562 ;;		_APP_DeviceCustomHIDInitialize
  6563 ;;		_APP_LEDUpdateUSBStatus
  6564 ;;		_USBCheckHIDRequest
  6565 ;; This function is called by:
  6566 ;;		_USBDeviceTasks
  6567 ;;		_USBStdSetCfgHandler
  6568 ;;		_USBSuspend
  6569 ;;		_USBWakeFromSuspend
  6570 ;;		_USBCtrlTrfSetupHandler
  6571 ;;		_USBCheckStdRequest
  6572 ;;		_USBStdFeatureReqHandler
  6573 ;; This function uses a non-reentrant model
  6574 ;;
  6575                           
  6576                           	psect	text31
  6577  001F7C                     __ptext31:
  6578                           	opt stack 0
  6579  001F7C                     _USER_USB_CALLBACK_EVENT_HANDLER:
  6580                           	opt stack 23
  6581                           
  6582                           ;main.c: 90: switch((int)event)
  6583                           
  6584                           ;incstack = 0
  6585  001F7C  D00F               	goto	i2l2834
  6586  001F7E                     i2l2822:
  6587                           
  6588                           ;main.c: 98: APP_LEDUpdateUSBStatus();
  6589  001F7E  EC7E  F00F         	call	_APP_LEDUpdateUSBStatus	;wreg free
  6590                           
  6591                           ;main.c: 99: break;
  6592  001F82  D034               	goto	i2l136
  6593  001F84                     i2l2824:
  6594                           
  6595                           ;main.c: 103: APP_LEDUpdateUSBStatus();
  6596  001F84  EC7E  F00F         	call	_APP_LEDUpdateUSBStatus	;wreg free
  6597                           
  6598                           ;main.c: 104: break;
  6599  001F88  D031               	goto	i2l136
  6600  001F8A                     i2l2826:
  6601                           
  6602                           ;main.c: 108: APP_LEDUpdateUSBStatus();
  6603  001F8A  EC7E  F00F         	call	_APP_LEDUpdateUSBStatus	;wreg free
  6604                           
  6605                           ;main.c: 109: break;
  6606  001F8E  D02E               	goto	i2l136
  6607  001F90                     i2l2828:
  6608                           
  6609                           ;main.c: 114: APP_DeviceCustomHIDInitialize();
  6610  001F90  EC05  F011         	call	_APP_DeviceCustomHIDInitialize	;wreg free
  6611                           
  6612                           ;main.c: 115: break;
  6613  001F94  D02B               	goto	i2l136
  6614  001F96                     i2l2830:
  6615                           
  6616                           ;main.c: 123: USBCheckHIDRequest();
  6617  001F96  ECD5  F009         	call	_USBCheckHIDRequest	;wreg free
  6618                           
  6619                           ;main.c: 124: break;
  6620  001F9A  D028               	goto	i2l136
  6621  001F9C                     i2l2834:
  6622  001F9C  C00F  F015         	movff	USER_USB_CALLBACK_EVENT_HANDLER@event,??_USER_USB_CALLBACK_EVENT_HANDLER
  6623  001FA0  C010  F016         	movff	USER_USB_CALLBACK_EVENT_HANDLER@event+1,??_USER_USB_CALLBACK_EVENT_HANDLER+1
  6624                           
  6625                           ; Switch on 2 bytes has been partitioned into a top level switch of size 1, and 2 sub-sw
      +                          itches
  6626                           ; Switch size 1, requested type "space"
  6627                           ; Number of cases is 2, Range of values is 0 to 127
  6628                           ; switch strategies available:
  6629                           ; Name         Instructions Cycles
  6630                           ; simple_byte            7     4 (average)
  6631                           ;	Chosen strategy is simple_byte
  6632  001FA4  5016               	movf	??_USER_USB_CALLBACK_EVENT_HANDLER+1,w,c
  6633  001FA6  0A00               	xorlw	0	; case 0
  6634  001FA8  B4D8               	btfsc	status,2,c
  6635  001FAA  D004               	goto	i2l3972
  6636  001FAC  0A7F               	xorlw	127	; case 127
  6637  001FAE  B4D8               	btfsc	status,2,c
  6638  001FB0  D01B               	goto	i2l3974
  6639  001FB2  D01C               	goto	i2l136
  6640  001FB4                     i2l3972:
  6641                           
  6642                           ; Switch size 1, requested type "space"
  6643                           ; Number of cases is 8, Range of values is 1 to 117
  6644                           ; switch strategies available:
  6645                           ; Name         Instructions Cycles
  6646                           ; simple_byte           25    13 (average)
  6647                           ;	Chosen strategy is simple_byte
  6648  001FB4  5015               	movf	??_USER_USB_CALLBACK_EVENT_HANDLER,w,c
  6649  001FB6  0A01               	xorlw	1	; case 1
  6650  001FB8  B4D8               	btfsc	status,2,c
  6651  001FBA  D7EA               	goto	i2l2828
  6652  001FBC  0A03               	xorlw	3	; case 2
  6653  001FBE  B4D8               	btfsc	status,2,c
  6654  001FC0  D015               	goto	i2l136
  6655  001FC2  0A01               	xorlw	1	; case 3
  6656  001FC4  B4D8               	btfsc	status,2,c
  6657  001FC6  D7E7               	goto	i2l2830
  6658  001FC8  0A06               	xorlw	6	; case 5
  6659  001FCA  B4D8               	btfsc	status,2,c
  6660  001FCC  D00F               	goto	i2l136
  6661  001FCE  0A77               	xorlw	119	; case 114
  6662  001FD0  B4D8               	btfsc	status,2,c
  6663  001FD2  D00C               	goto	i2l136
  6664  001FD4  0A01               	xorlw	1	; case 115
  6665  001FD6  B4D8               	btfsc	status,2,c
  6666  001FD8  D7D2               	goto	i2l2822
  6667  001FDA  0A07               	xorlw	7	; case 116
  6668  001FDC  B4D8               	btfsc	status,2,c
  6669  001FDE  D7D5               	goto	i2l2826
  6670  001FE0  0A01               	xorlw	1	; case 117
  6671  001FE2  B4D8               	btfsc	status,2,c
  6672  001FE4  D7CF               	goto	i2l2824
  6673  001FE6  D002               	goto	i2l136
  6674  001FE8                     i2l3974:
  6675                           
  6676                           ; Switch size 1, requested type "space"
  6677                           ; Number of cases is 1, Range of values is 255 to 255
  6678                           ; switch strategies available:
  6679                           ; Name         Instructions Cycles
  6680                           ; simple_byte            4     3 (average)
  6681                           ;	Chosen strategy is simple_byte
  6682  001FE8  5015               	movf	??_USER_USB_CALLBACK_EVENT_HANDLER,w,c
  6683  001FEA  0AFF               	xorlw	255	; case 255
  6684  001FEC                     i2l136:
  6685  001FEC  0012               	return	
  6686  001FEE                     __end_of_USER_USB_CALLBACK_EVENT_HANDLER:
  6687                           	opt stack 0
  6688                           pclatu	equ	0xFFB
  6689                           pclath	equ	0xFFA
  6690                           tblptru	equ	0xFF8
  6691                           tblptrh	equ	0xFF7
  6692                           tblptrl	equ	0xFF6
  6693                           tablat	equ	0xFF5
  6694                           prodh	equ	0xFF4
  6695                           prodl	equ	0xFF3
  6696                           intcon	equ	0xFF2
  6697                           indf0	equ	0xFEF
  6698                           postinc0	equ	0xFEE
  6699                           fsr0h	equ	0xFEA
  6700                           fsr0l	equ	0xFE9
  6701                           wreg	equ	0xFE8
  6702                           indf1	equ	0xFE7
  6703                           fsr1h	equ	0xFE2
  6704                           fsr1l	equ	0xFE1
  6705                           indf2	equ	0xFDF
  6706                           postinc2	equ	0xFDE
  6707                           postdec2	equ	0xFDD
  6708                           plusw2	equ	0xFDB
  6709                           fsr2h	equ	0xFDA
  6710                           fsr2l	equ	0xFD9
  6711                           status	equ	0xFD8
  6712                           
  6713 ;; *************** function _USBCheckHIDRequest *****************
  6714 ;; Defined at:
  6715 ;;		line 157 in file "../src/usb_device_hid.c"
  6716 ;; Parameters:    Size  Location     Type
  6717 ;;		None
  6718 ;; Auto vars:     Size  Location     Type
  6719 ;;		None
  6720 ;; Return value:  Size  Location     Type
  6721 ;;		None               void
  6722 ;; Registers used:
  6723 ;;		wreg, status,2, status,0
  6724 ;; Tracked objects:
  6725 ;;		On entry : 0/0
  6726 ;;		On exit  : 0/0
  6727 ;;		Unchanged: 0/0
  6728 ;; Data sizes:     COMRAM   BANK0   BANK1   BANK2   BANK3   BANK4   BANK5   BANK6   BANK7
  6729 ;;      Params:         0       0       0       0       0       0       0       0       0
  6730 ;;      Locals:         0       0       0       0       0       0       0       0       0
  6731 ;;      Temps:          1       0       0       0       0       0       0       0       0
  6732 ;;      Totals:         1       0       0       0       0       0       0       0       0
  6733 ;;Total ram usage:        1 bytes
  6734 ;; Hardware stack levels used:    1
  6735 ;; This function calls:
  6736 ;;		Nothing
  6737 ;; This function is called by:
  6738 ;;		_USER_USB_CALLBACK_EVENT_HANDLER
  6739 ;; This function uses a non-reentrant model
  6740 ;;
  6741                           
  6742                           	psect	text32
  6743  0013AA                     __ptext32:
  6744                           	opt stack 0
  6745  0013AA                     _USBCheckHIDRequest:
  6746                           	opt stack 25
  6747                           
  6748                           ;usb_device_hid.c: 159: if(SetupPkt.Recipient != (0x01)) return;
  6749                           
  6750                           ;incstack = 0
  6751  0013AA  0104               	movlb	4	; () banked
  6752  0013AC  5120               	movf	32,w,b	;volatile
  6753  0013AE  0B1F               	andlw	31
  6754  0013B0  6E01               	movwf	??_USBCheckHIDRequest& (0+255),c
  6755  0013B2  0401               	decf	??_USBCheckHIDRequest,w,c
  6756  0013B4  A4D8               	btfss	status,2,c
  6757  0013B6  D078               	goto	i2l689
  6758                           
  6759                           ; BSR set to: 4
  6760                           ;usb_device_hid.c: 160: if(SetupPkt.bIntfID != 0x00) return;
  6761                           
  6762                           ; BSR set to: 4
  6763                           
  6764                           ; BSR set to: 4
  6765  0013B8  0104               	movlb	4	; () banked
  6766  0013BA  5124               	movf	36,w,b	;volatile
  6767  0013BC  A4D8               	btfss	status,2,c
  6768  0013BE  D074               	goto	i2l689
  6769                           
  6770                           ; BSR set to: 4
  6771                           ;usb_device_hid.c: 167: if(SetupPkt.bRequest == 6)
  6772                           
  6773                           ; BSR set to: 4
  6774                           
  6775                           ; BSR set to: 4
  6776  0013C0  0104               	movlb	4	; () banked
  6777  0013C2  5121               	movf	33,w,b	;volatile
  6778  0013C4  0A06               	xorlw	6
  6779  0013C6  B4D8               	btfsc	status,2,c
  6780  0013C8  D01F               	goto	i2l2790
  6781  0013CA  D027               	goto	i2l2792
  6782  0013CC                     i2l2774:
  6783                           
  6784                           ; BSR set to: 4
  6785                           ;usb_device_hid.c: 172: if(USBActiveConfiguration == 1)
  6786  0013CC  044C               	decf	_USBActiveConfiguration,w,c	;volatile
  6787  0013CE  A4D8               	btfss	status,2,c
  6788  0013D0  D024               	goto	i2l2792
  6789                           
  6790                           ; BSR set to: 4
  6791                           ;usb_device_hid.c: 173: {
  6792                           ;usb_device_hid.c: 174: { inPipes[0].pSrc.bRom = (const uint8_t*)&configDescriptor1 + 18
      +                          ; inPipes[0].wCount.Val = sizeof(USB_HID_DSC)+3; inPipes[0].info.Val = 0x40 | 0x80 | 0x0
      +                          0; };
  6793  0013D2  0E08               	movlw	high (_configDescriptor1+18)
  6794  0013D4  0100               	movlb	0	; () banked
  6795  0013D6  6F7A               	movwf	(_inPipes+1)& (0+255),b	;volatile
  6796  0013D8  0E7D               	movlw	low (_configDescriptor1+18)
  6797  0013DA  0100               	movlb	0	; () banked
  6798  0013DC  6F79               	movwf	_inPipes& (0+255),b	;volatile
  6799                           
  6800                           ; BSR set to: 0
  6801  0013DE  0E00               	movlw	0
  6802  0013E0  0100               	movlb	0	; () banked
  6803  0013E2  6F7E               	movwf	(_inPipes+5)& (0+255),b	;volatile
  6804  0013E4  0E09               	movlw	9
  6805  0013E6  D00A               	goto	L23
  6806  0013E8                     i2l2782:
  6807                           
  6808                           ;usb_device_hid.c: 182: {
  6809                           ;usb_device_hid.c: 183: { inPipes[0].pSrc.bRom = (const uint8_t*)&hid_rpt01; inPipes[0].
      +                          wCount.Val = 29; inPipes[0].info.Val = 0x40 | 0x80 | 0x00; };
  6810  0013E8  0E08               	movlw	high _hid_rpt01
  6811  0013EA  0100               	movlb	0	; () banked
  6812  0013EC  6F7A               	movwf	(_inPipes+1)& (0+255),b	;volatile
  6813  0013EE  0E94               	movlw	low _hid_rpt01
  6814  0013F0  0100               	movlb	0	; () banked
  6815  0013F2  6F79               	movwf	_inPipes& (0+255),b	;volatile
  6816                           
  6817                           ; BSR set to: 0
  6818  0013F4  0E00               	movlw	0
  6819  0013F6  0100               	movlb	0	; () banked
  6820  0013F8  6F7E               	movwf	(_inPipes+5)& (0+255),b	;volatile
  6821  0013FA  0E1D               	movlw	29
  6822  0013FC                     L23:
  6823  0013FC  0100               	movlb	0	; () banked
  6824  0013FE  6F7D               	movwf	(_inPipes+4)& (0+255),b	;volatile
  6825                           
  6826                           ; BSR set to: 0
  6827  001400  0EC0               	movlw	192
  6828  001402  0100               	movlb	0	; () banked
  6829  001404  6F7C               	movwf	(_inPipes+3)& (0+255),b	;volatile
  6830                           
  6831                           ;usb_device_hid.c: 187: }
  6832                           ;usb_device_hid.c: 188: break;
  6833  001406  D009               	goto	i2l2792
  6834  001408                     i2l2790:
  6835  001408  0104               	movlb	4	; () banked
  6836  00140A  5123               	movf	35,w,b	;volatile
  6837                           
  6838                           ; Switch size 1, requested type "space"
  6839                           ; Number of cases is 3, Range of values is 33 to 35
  6840                           ; switch strategies available:
  6841                           ; Name         Instructions Cycles
  6842                           ; simple_byte           10     6 (average)
  6843                           ;	Chosen strategy is simple_byte
  6844  00140C  0A21               	xorlw	33	; case 33
  6845  00140E  B4D8               	btfsc	status,2,c
  6846  001410  D7DD               	goto	i2l2774
  6847  001412  0A03               	xorlw	3	; case 34
  6848  001414  B4D8               	btfsc	status,2,c
  6849  001416  D7E8               	goto	i2l2782
  6850  001418  0A01               	xorlw	1	; case 35
  6851  00141A                     i2l2792:
  6852                           
  6853                           ;usb_device_hid.c: 203: }
  6854                           ;usb_device_hid.c: 205: if(SetupPkt.RequestType != (0x20>>5))
  6855  00141A  0104               	movlb	4	; () banked
  6856  00141C  3920               	swapf	32,w,b	;volatile
  6857  00141E  32E8               	rrcf	wreg,f,c
  6858  001420  0B03               	andlw	3
  6859  001422  6E01               	movwf	??_USBCheckHIDRequest& (0+255),c
  6860  001424  0401               	decf	??_USBCheckHIDRequest,w,c
  6861  001426  A4D8               	btfss	status,2,c
  6862  001428  D03F               	goto	i2l689
  6863  00142A  D02A               	goto	i2l2818
  6864  00142C                     i2l2796:
  6865                           
  6866                           ; BSR set to: 4
  6867                           ;usb_device_hid.c: 223: { inPipes[0].pSrc.bRam = (uint8_t*)&idle_rate; inPipes[0].wCount
      +                          .Val = 1; inPipes[0].info.Val = 0x40 | 0x80 | 0x01; };
  6868  00142C  0E00               	movlw	high _idle_rate
  6869  00142E  0100               	movlb	0	; () banked
  6870  001430  6F7A               	movwf	(_inPipes+1)& (0+255),b	;volatile
  6871  001432  0E50               	movlw	low _idle_rate
  6872  001434  0100               	movlb	0	; () banked
  6873  001436  6F79               	movwf	_inPipes& (0+255),b	;volatile
  6874                           
  6875                           ; BSR set to: 0
  6876  001438  0E00               	movlw	0
  6877  00143A  0100               	movlb	0	; () banked
  6878  00143C  6F7E               	movwf	(_inPipes+5)& (0+255),b	;volatile
  6879  00143E  0E01               	movlw	1
  6880  001440  0100               	movlb	0	; () banked
  6881  001442  6F7D               	movwf	(_inPipes+4)& (0+255),b	;volatile
  6882                           
  6883                           ; BSR set to: 0
  6884  001444  0EC1               	movlw	193
  6885  001446  D013               	goto	L24
  6886  001448                     i2l2802:
  6887                           
  6888                           ;usb_device_hid.c: 229: inPipes[0].info.Val = 0x00 | 0x80;
  6889  001448  0E80               	movlw	128
  6890  00144A  0100               	movlb	0	; () banked
  6891  00144C  6F7C               	movwf	(_inPipes+3)& (0+255),b	;volatile
  6892                           
  6893                           ; BSR set to: 0
  6894                           ;usb_device_hid.c: 230: idle_rate = ((USB_SETUP_SET_IDLE_RATE*)&SetupPkt)->duration;
  6895  00144E  C423 F050          	movff	1059,_idle_rate
  6896                           
  6897                           ;usb_device_hid.c: 231: ;
  6898                           ;usb_device_hid.c: 232: break;
  6899  001452  D02A               	goto	i2l689
  6900  001454                     i2l2806:
  6901                           
  6902                           ;usb_device_hid.c: 234: { inPipes[0].pSrc.bRam = (uint8_t*)&active_protocol; inPipes[0].
      +                          wCount.Val = 1; inPipes[0].info.Val = 0x00 | 0x80 | 0x01; };
  6903  001454  0E00               	movlw	high _active_protocol
  6904  001456  0100               	movlb	0	; () banked
  6905  001458  6F7A               	movwf	(_inPipes+1)& (0+255),b	;volatile
  6906  00145A  0E4F               	movlw	low _active_protocol
  6907  00145C  0100               	movlb	0	; () banked
  6908  00145E  6F79               	movwf	_inPipes& (0+255),b	;volatile
  6909                           
  6910                           ; BSR set to: 0
  6911  001460  0E00               	movlw	0
  6912  001462  0100               	movlb	0	; () banked
  6913  001464  6F7E               	movwf	(_inPipes+5)& (0+255),b	;volatile
  6914  001466  0E01               	movlw	1
  6915  001468  0100               	movlb	0	; () banked
  6916  00146A  6F7D               	movwf	(_inPipes+4)& (0+255),b	;volatile
  6917                           
  6918                           ; BSR set to: 0
  6919  00146C  0E81               	movlw	129
  6920  00146E                     L24:
  6921  00146E  0100               	movlb	0	; () banked
  6922  001470  6F7C               	movwf	(_inPipes+3)& (0+255),b	;volatile
  6923                           
  6924                           ;usb_device_hid.c: 238: break;
  6925  001472  D01A               	goto	i2l689
  6926  001474                     i2l2812:
  6927                           
  6928                           ;usb_device_hid.c: 240: inPipes[0].info.Val = 0x00 | 0x80;
  6929  001474  0E80               	movlw	128
  6930  001476  0100               	movlb	0	; () banked
  6931  001478  6F7C               	movwf	(_inPipes+3)& (0+255),b	;volatile
  6932                           
  6933                           ; BSR set to: 0
  6934                           ;usb_device_hid.c: 241: active_protocol = ((USB_SETUP_SET_PROTOCOL*)&SetupPkt)->protocol
      +                          ;
  6935  00147A  C422 F04F          	movff	1058,_active_protocol
  6936                           
  6937                           ;usb_device_hid.c: 242: break;
  6938  00147E  D014               	goto	i2l689
  6939  001480                     i2l2818:
  6940  001480  0104               	movlb	4	; () banked
  6941  001482  5121               	movf	33,w,b	;volatile
  6942                           
  6943                           ; Switch size 1, requested type "space"
  6944                           ; Number of cases is 6, Range of values is 1 to 11
  6945                           ; switch strategies available:
  6946                           ; Name         Instructions Cycles
  6947                           ; simple_byte           19    10 (average)
  6948                           ;	Chosen strategy is simple_byte
  6949  001484  0A01               	xorlw	1	; case 1
  6950  001486  B4D8               	btfsc	status,2,c
  6951  001488  D00F               	goto	i2l689
  6952  00148A  0A03               	xorlw	3	; case 2
  6953  00148C  B4D8               	btfsc	status,2,c
  6954  00148E  D7CE               	goto	i2l2796
  6955  001490  0A01               	xorlw	1	; case 3
  6956  001492  B4D8               	btfsc	status,2,c
  6957  001494  D7DF               	goto	i2l2806
  6958  001496  0A0A               	xorlw	10	; case 9
  6959  001498  B4D8               	btfsc	status,2,c
  6960  00149A  D006               	goto	i2l689
  6961  00149C  0A03               	xorlw	3	; case 10
  6962  00149E  B4D8               	btfsc	status,2,c
  6963  0014A0  D7D3               	goto	i2l2802
  6964  0014A2  0A01               	xorlw	1	; case 11
  6965  0014A4  B4D8               	btfsc	status,2,c
  6966  0014A6  D7E6               	goto	i2l2812
  6967  0014A8                     i2l689:
  6968  0014A8  0012               	return	
  6969  0014AA                     __end_of_USBCheckHIDRequest:
  6970                           	opt stack 0
  6971                           pclatu	equ	0xFFB
  6972                           pclath	equ	0xFFA
  6973                           tblptru	equ	0xFF8
  6974                           tblptrh	equ	0xFF7
  6975                           tblptrl	equ	0xFF6
  6976                           tablat	equ	0xFF5
  6977                           prodh	equ	0xFF4
  6978                           prodl	equ	0xFF3
  6979                           intcon	equ	0xFF2
  6980                           indf0	equ	0xFEF
  6981                           postinc0	equ	0xFEE
  6982                           fsr0h	equ	0xFEA
  6983                           fsr0l	equ	0xFE9
  6984                           wreg	equ	0xFE8
  6985                           indf1	equ	0xFE7
  6986                           fsr1h	equ	0xFE2
  6987                           fsr1l	equ	0xFE1
  6988                           indf2	equ	0xFDF
  6989                           postinc2	equ	0xFDE
  6990                           postdec2	equ	0xFDD
  6991                           plusw2	equ	0xFDB
  6992                           fsr2h	equ	0xFDA
  6993                           fsr2l	equ	0xFD9
  6994                           status	equ	0xFD8
  6995                           
  6996 ;; *************** function _APP_LEDUpdateUSBStatus *****************
  6997 ;; Defined at:
  6998 ;;		line 75 in file "../src/app_led_usb_status.c"
  6999 ;; Parameters:    Size  Location     Type
  7000 ;;		None
  7001 ;; Auto vars:     Size  Location     Type
  7002 ;;		None
  7003 ;; Return value:  Size  Location     Type
  7004 ;;		None               void
  7005 ;; Registers used:
  7006 ;;		wreg, status,2, status,0, cstack
  7007 ;; Tracked objects:
  7008 ;;		On entry : 0/0
  7009 ;;		On exit  : 0/0
  7010 ;;		Unchanged: 0/0
  7011 ;; Data sizes:     COMRAM   BANK0   BANK1   BANK2   BANK3   BANK4   BANK5   BANK6   BANK7
  7012 ;;      Params:         0       0       0       0       0       0       0       0       0
  7013 ;;      Locals:         0       0       0       0       0       0       0       0       0
  7014 ;;      Temps:          0       0       0       0       0       0       0       0       0
  7015 ;;      Totals:         0       0       0       0       0       0       0       0       0
  7016 ;;Total ram usage:        0 bytes
  7017 ;; Hardware stack levels used:    1
  7018 ;; Hardware stack levels required when called:    1
  7019 ;; This function calls:
  7020 ;;		_LED_Off
  7021 ;;		_LED_On
  7022 ;; This function is called by:
  7023 ;;		_USER_USB_CALLBACK_EVENT_HANDLER
  7024 ;; This function uses a non-reentrant model
  7025 ;;
  7026                           
  7027                           	psect	text33
  7028  001EFC                     __ptext33:
  7029                           	opt stack 0
  7030  001EFC                     _APP_LEDUpdateUSBStatus:
  7031                           	opt stack 24
  7032                           
  7033                           ;app_led_usb_status.c: 77: static uint16_t ledCount = 0;
  7034                           ;app_led_usb_status.c: 79: if(UCONbits.SUSPND == 1)
  7035                           
  7036                           ;incstack = 0
  7037  001EFC  A26D               	btfss	3949,1,c	;volatile
  7038  001EFE  D035               	goto	i2l2758
  7039                           
  7040                           ;app_led_usb_status.c: 80: {
  7041                           ;app_led_usb_status.c: 81: LED_Off(LED_D1);
  7042  001F00  0E01               	movlw	1
  7043  001F02  EC75  F011         	call	_LED_Off
  7044  001F06  D039               	goto	i2l81
  7045  001F08                     i2l2732:
  7046                           
  7047                           ;app_led_usb_status.c: 90: if(ledCount == 1)
  7048  001F08  0437               	decf	APP_LEDUpdateUSBStatus@ledCount,w,c
  7049  001F0A  1038               	iorwf	APP_LEDUpdateUSBStatus@ledCount+1,w,c
  7050  001F0C  A4D8               	btfss	status,2,c
  7051  001F0E  D004               	goto	i2l2736
  7052                           
  7053                           ;app_led_usb_status.c: 91: {
  7054                           ;app_led_usb_status.c: 92: LED_On(LED_D1);
  7055  001F10  0E01               	movlw	1
  7056  001F12  EC5A  F011         	call	_LED_On
  7057                           
  7058                           ;app_led_usb_status.c: 93: }
  7059  001F16  D02F               	goto	i2l2760
  7060  001F18                     i2l2736:
  7061                           
  7062                           ;app_led_usb_status.c: 94: else if(ledCount == 75)
  7063  001F18  5037               	movf	APP_LEDUpdateUSBStatus@ledCount,w,c
  7064  001F1A  0A4B               	xorlw	75
  7065  001F1C  1038               	iorwf	APP_LEDUpdateUSBStatus@ledCount+1,w,c
  7066  001F1E  A4D8               	btfss	status,2,c
  7067  001F20  D004               	goto	i2l2740
  7068                           
  7069                           ;app_led_usb_status.c: 95: {
  7070                           ;app_led_usb_status.c: 96: LED_Off(LED_D1);
  7071  001F22  0E01               	movlw	1
  7072  001F24  EC75  F011         	call	_LED_Off
  7073                           
  7074                           ;app_led_usb_status.c: 97: }
  7075  001F28  D026               	goto	i2l2760
  7076  001F2A                     i2l2740:
  7077                           
  7078                           ;app_led_usb_status.c: 98: else if(ledCount > 150)
  7079  001F2A  0E97               	movlw	151
  7080  001F2C  5C37               	subwf	APP_LEDUpdateUSBStatus@ledCount,w,c
  7081  001F2E  0E00               	movlw	0
  7082  001F30  D014               	goto	L25
  7083  001F32                     i2l2744:
  7084                           
  7085                           ;app_led_usb_status.c: 107: if(ledCount == 1)
  7086  001F32  0437               	decf	APP_LEDUpdateUSBStatus@ledCount,w,c
  7087  001F34  1038               	iorwf	APP_LEDUpdateUSBStatus@ledCount+1,w,c
  7088  001F36  A4D8               	btfss	status,2,c
  7089  001F38  D004               	goto	i2l2748
  7090                           
  7091                           ;app_led_usb_status.c: 108: {
  7092                           ;app_led_usb_status.c: 109: LED_On(LED_D1);
  7093  001F3A  0E01               	movlw	1
  7094  001F3C  EC5A  F011         	call	_LED_On
  7095                           
  7096                           ;app_led_usb_status.c: 110: }
  7097  001F40  D01A               	goto	i2l2760
  7098  001F42                     i2l2748:
  7099                           
  7100                           ;app_led_usb_status.c: 111: else if(ledCount == 50)
  7101  001F42  5037               	movf	APP_LEDUpdateUSBStatus@ledCount,w,c
  7102  001F44  0A32               	xorlw	50
  7103  001F46  1038               	iorwf	APP_LEDUpdateUSBStatus@ledCount+1,w,c
  7104  001F48  A4D8               	btfss	status,2,c
  7105  001F4A  D004               	goto	i2l2752
  7106                           
  7107                           ;app_led_usb_status.c: 112: {
  7108                           ;app_led_usb_status.c: 113: LED_Off(LED_D1);
  7109  001F4C  0E01               	movlw	1
  7110  001F4E  EC75  F011         	call	_LED_Off
  7111                           
  7112                           ;app_led_usb_status.c: 114: }
  7113  001F52  D011               	goto	i2l2760
  7114  001F54                     i2l2752:
  7115                           
  7116                           ;app_led_usb_status.c: 115: else if(ledCount > 950)
  7117  001F54  0EB7               	movlw	183
  7118  001F56  5C37               	subwf	APP_LEDUpdateUSBStatus@ledCount,w,c
  7119  001F58  0E03               	movlw	3
  7120  001F5A                     L25:
  7121  001F5A  5838               	subwfb	APP_LEDUpdateUSBStatus@ledCount+1,w,c
  7122  001F5C  A0D8               	btfss	status,0,c
  7123  001F5E  D00B               	goto	i2l2760
  7124                           
  7125                           ;app_led_usb_status.c: 116: {
  7126                           ;app_led_usb_status.c: 117: ledCount = 0;
  7127  001F60  0E00               	movlw	0
  7128  001F62  6E38               	movwf	APP_LEDUpdateUSBStatus@ledCount+1,c
  7129  001F64  0E00               	movlw	0
  7130  001F66  6E37               	movwf	APP_LEDUpdateUSBStatus@ledCount,c
  7131  001F68  D006               	goto	i2l2760
  7132  001F6A                     i2l2758:
  7133  001F6A  0100               	movlb	0	; () banked
  7134  001F6C  5178               	movf	_USBDeviceState& (0+255),w,b	;volatile
  7135                           
  7136                           ; Switch size 1, requested type "space"
  7137                           ; Number of cases is 1, Range of values is 32 to 32
  7138                           ; switch strategies available:
  7139                           ; Name         Instructions Cycles
  7140                           ; simple_byte            4     3 (average)
  7141                           ;	Chosen strategy is simple_byte
  7142  001F6E  0A20               	xorlw	32	; case 32
  7143  001F70  B4D8               	btfsc	status,2,c
  7144  001F72  D7CA               	goto	i2l2732
  7145  001F74  D7DE               	goto	i2l2744
  7146  001F76                     i2l2760:
  7147                           
  7148                           ;app_led_usb_status.c: 123: ledCount++;
  7149  001F76  4A37               	infsnz	APP_LEDUpdateUSBStatus@ledCount,f,c
  7150  001F78  2A38               	incf	APP_LEDUpdateUSBStatus@ledCount+1,f,c
  7151  001F7A                     i2l81:
  7152  001F7A  0012               	return	
  7153  001F7C                     __end_of_APP_LEDUpdateUSBStatus:
  7154                           	opt stack 0
  7155                           pclatu	equ	0xFFB
  7156                           pclath	equ	0xFFA
  7157                           tblptru	equ	0xFF8
  7158                           tblptrh	equ	0xFF7
  7159                           tblptrl	equ	0xFF6
  7160                           tablat	equ	0xFF5
  7161                           prodh	equ	0xFF4
  7162                           prodl	equ	0xFF3
  7163                           intcon	equ	0xFF2
  7164                           indf0	equ	0xFEF
  7165                           postinc0	equ	0xFEE
  7166                           fsr0h	equ	0xFEA
  7167                           fsr0l	equ	0xFE9
  7168                           wreg	equ	0xFE8
  7169                           indf1	equ	0xFE7
  7170                           fsr1h	equ	0xFE2
  7171                           fsr1l	equ	0xFE1
  7172                           indf2	equ	0xFDF
  7173                           postinc2	equ	0xFDE
  7174                           postdec2	equ	0xFDD
  7175                           plusw2	equ	0xFDB
  7176                           fsr2h	equ	0xFDA
  7177                           fsr2l	equ	0xFD9
  7178                           status	equ	0xFD8
  7179                           
  7180 ;; *************** function _LED_On *****************
  7181 ;; Defined at:
  7182 ;;		line 96 in file "../../deviceDefinitions/leds.c"
  7183 ;; Parameters:    Size  Location     Type
  7184 ;;  led             1    wreg     enum E2
  7185 ;; Auto vars:     Size  Location     Type
  7186 ;;  led             1    0[COMRAM] enum E2
  7187 ;; Return value:  Size  Location     Type
  7188 ;;		None               void
  7189 ;; Registers used:
  7190 ;;		wreg, status,2, status,0
  7191 ;; Tracked objects:
  7192 ;;		On entry : 0/0
  7193 ;;		On exit  : 0/0
  7194 ;;		Unchanged: 0/0
  7195 ;; Data sizes:     COMRAM   BANK0   BANK1   BANK2   BANK3   BANK4   BANK5   BANK6   BANK7
  7196 ;;      Params:         0       0       0       0       0       0       0       0       0
  7197 ;;      Locals:         1       0       0       0       0       0       0       0       0
  7198 ;;      Temps:          0       0       0       0       0       0       0       0       0
  7199 ;;      Totals:         1       0       0       0       0       0       0       0       0
  7200 ;;Total ram usage:        1 bytes
  7201 ;; Hardware stack levels used:    1
  7202 ;; This function calls:
  7203 ;;		Nothing
  7204 ;; This function is called by:
  7205 ;;		_APP_LEDUpdateUSBStatus
  7206 ;; This function uses a non-reentrant model
  7207 ;;
  7208                           
  7209                           	psect	text34
  7210  0022B4                     __ptext34:
  7211                           	opt stack 0
  7212  0022B4                     _LED_On:
  7213                           	opt stack 24
  7214                           
  7215                           ;incstack = 0
  7216                           ;LED_On@led stored from wreg
  7217  0022B4  6E01               	movwf	LED_On@led,c
  7218                           
  7219                           ;leds.c: 98: switch(led)
  7220  0022B6  D008               	goto	i2l2688
  7221  0022B8                     i2l227:
  7222                           
  7223                           ;leds.c: 101: LATDbits.LATD0 = 1;
  7224  0022B8  808C               	bsf	3980,0,c	;volatile
  7225                           
  7226                           ;leds.c: 102: break;
  7227  0022BA  D016               	goto	i2l233
  7228  0022BC                     i2l229:
  7229                           
  7230                           ;leds.c: 105: LATDbits.LATD1 = 1;
  7231  0022BC  828C               	bsf	3980,1,c	;volatile
  7232                           
  7233                           ;leds.c: 106: break;
  7234  0022BE  D014               	goto	i2l233
  7235  0022C0                     i2l230:
  7236                           
  7237                           ;leds.c: 109: LATDbits.LATD2 = 1;
  7238  0022C0  848C               	bsf	3980,2,c	;volatile
  7239                           
  7240                           ;leds.c: 110: break;
  7241  0022C2  D012               	goto	i2l233
  7242  0022C4                     i2l231:
  7243                           
  7244                           ;leds.c: 113: LATDbits.LATD3 = 1;
  7245  0022C4  868C               	bsf	3980,3,c	;volatile
  7246                           
  7247                           ;leds.c: 114: break;
  7248  0022C6  D010               	goto	i2l233
  7249  0022C8                     i2l2688:
  7250  0022C8  5001               	movf	LED_On@led,w,c
  7251                           
  7252                           ; Switch size 1, requested type "space"
  7253                           ; Number of cases is 5, Range of values is 0 to 4
  7254                           ; switch strategies available:
  7255                           ; Name         Instructions Cycles
  7256                           ; simple_byte           16     9 (average)
  7257                           ;	Chosen strategy is simple_byte
  7258  0022CA  0A00               	xorlw	0	; case 0
  7259  0022CC  B4D8               	btfsc	status,2,c
  7260  0022CE  D00C               	goto	i2l233
  7261  0022D0  0A01               	xorlw	1	; case 1
  7262  0022D2  B4D8               	btfsc	status,2,c
  7263  0022D4  D7F1               	goto	i2l227
  7264  0022D6  0A03               	xorlw	3	; case 2
  7265  0022D8  B4D8               	btfsc	status,2,c
  7266  0022DA  D7F0               	goto	i2l229
  7267  0022DC  0A01               	xorlw	1	; case 3
  7268  0022DE  B4D8               	btfsc	status,2,c
  7269  0022E0  D7EF               	goto	i2l230
  7270  0022E2  0A07               	xorlw	7	; case 4
  7271  0022E4  B4D8               	btfsc	status,2,c
  7272  0022E6  D7EE               	goto	i2l231
  7273  0022E8                     i2l233:
  7274  0022E8  0012               	return	
  7275  0022EA                     __end_of_LED_On:
  7276                           	opt stack 0
  7277                           pclatu	equ	0xFFB
  7278                           pclath	equ	0xFFA
  7279                           tblptru	equ	0xFF8
  7280                           tblptrh	equ	0xFF7
  7281                           tblptrl	equ	0xFF6
  7282                           tablat	equ	0xFF5
  7283                           prodh	equ	0xFF4
  7284                           prodl	equ	0xFF3
  7285                           intcon	equ	0xFF2
  7286                           indf0	equ	0xFEF
  7287                           postinc0	equ	0xFEE
  7288                           fsr0h	equ	0xFEA
  7289                           fsr0l	equ	0xFE9
  7290                           wreg	equ	0xFE8
  7291                           indf1	equ	0xFE7
  7292                           fsr1h	equ	0xFE2
  7293                           fsr1l	equ	0xFE1
  7294                           indf2	equ	0xFDF
  7295                           postinc2	equ	0xFDE
  7296                           postdec2	equ	0xFDD
  7297                           plusw2	equ	0xFDB
  7298                           fsr2h	equ	0xFDA
  7299                           fsr2l	equ	0xFD9
  7300                           status	equ	0xFD8
  7301                           
  7302 ;; *************** function _LED_Off *****************
  7303 ;; Defined at:
  7304 ;;		line 137 in file "../../deviceDefinitions/leds.c"
  7305 ;; Parameters:    Size  Location     Type
  7306 ;;  led             1    wreg     enum E2
  7307 ;; Auto vars:     Size  Location     Type
  7308 ;;  led             1    0[COMRAM] enum E2
  7309 ;; Return value:  Size  Location     Type
  7310 ;;		None               void
  7311 ;; Registers used:
  7312 ;;		wreg, status,2, status,0
  7313 ;; Tracked objects:
  7314 ;;		On entry : 0/0
  7315 ;;		On exit  : 0/0
  7316 ;;		Unchanged: 0/0
  7317 ;; Data sizes:     COMRAM   BANK0   BANK1   BANK2   BANK3   BANK4   BANK5   BANK6   BANK7
  7318 ;;      Params:         0       0       0       0       0       0       0       0       0
  7319 ;;      Locals:         1       0       0       0       0       0       0       0       0
  7320 ;;      Temps:          0       0       0       0       0       0       0       0       0
  7321 ;;      Totals:         1       0       0       0       0       0       0       0       0
  7322 ;;Total ram usage:        1 bytes
  7323 ;; Hardware stack levels used:    1
  7324 ;; This function calls:
  7325 ;;		Nothing
  7326 ;; This function is called by:
  7327 ;;		_APP_LEDUpdateUSBStatus
  7328 ;; This function uses a non-reentrant model
  7329 ;;
  7330                           
  7331                           	psect	text35
  7332  0022EA                     __ptext35:
  7333                           	opt stack 0
  7334  0022EA                     _LED_Off:
  7335                           	opt stack 24
  7336                           
  7337                           ;incstack = 0
  7338                           ;LED_Off@led stored from wreg
  7339  0022EA  6E01               	movwf	LED_Off@led,c
  7340                           
  7341                           ;leds.c: 139: switch(led)
  7342  0022EC  D008               	goto	i2l2682
  7343  0022EE                     i2l237:
  7344                           
  7345                           ;leds.c: 142: LATDbits.LATD0 = 0;
  7346  0022EE  908C               	bcf	3980,0,c	;volatile
  7347                           
  7348                           ;leds.c: 143: break;
  7349  0022F0  D016               	goto	i2l243
  7350  0022F2                     i2l239:
  7351                           
  7352                           ;leds.c: 146: LATDbits.LATD1 = 0;
  7353  0022F2  928C               	bcf	3980,1,c	;volatile
  7354                           
  7355                           ;leds.c: 147: break;
  7356  0022F4  D014               	goto	i2l243
  7357  0022F6                     i2l240:
  7358                           
  7359                           ;leds.c: 150: LATDbits.LATD2 = 0;
  7360  0022F6  948C               	bcf	3980,2,c	;volatile
  7361                           
  7362                           ;leds.c: 151: break;
  7363  0022F8  D012               	goto	i2l243
  7364  0022FA                     i2l241:
  7365                           
  7366                           ;leds.c: 154: LATDbits.LATD3 = 0;
  7367  0022FA  968C               	bcf	3980,3,c	;volatile
  7368                           
  7369                           ;leds.c: 155: break;
  7370  0022FC  D010               	goto	i2l243
  7371  0022FE                     i2l2682:
  7372  0022FE  5001               	movf	LED_Off@led,w,c
  7373                           
  7374                           ; Switch size 1, requested type "space"
  7375                           ; Number of cases is 5, Range of values is 0 to 4
  7376                           ; switch strategies available:
  7377                           ; Name         Instructions Cycles
  7378                           ; simple_byte           16     9 (average)
  7379                           ;	Chosen strategy is simple_byte
  7380  002300  0A00               	xorlw	0	; case 0
  7381  002302  B4D8               	btfsc	status,2,c
  7382  002304  D00C               	goto	i2l243
  7383  002306  0A01               	xorlw	1	; case 1
  7384  002308  B4D8               	btfsc	status,2,c
  7385  00230A  D7F1               	goto	i2l237
  7386  00230C  0A03               	xorlw	3	; case 2
  7387  00230E  B4D8               	btfsc	status,2,c
  7388  002310  D7F0               	goto	i2l239
  7389  002312  0A01               	xorlw	1	; case 3
  7390  002314  B4D8               	btfsc	status,2,c
  7391  002316  D7EF               	goto	i2l240
  7392  002318  0A07               	xorlw	7	; case 4
  7393  00231A  B4D8               	btfsc	status,2,c
  7394  00231C  D7EE               	goto	i2l241
  7395  00231E                     i2l243:
  7396  00231E  0012               	return	
  7397  002320                     __end_of_LED_Off:
  7398                           	opt stack 0
  7399                           pclatu	equ	0xFFB
  7400                           pclath	equ	0xFFA
  7401                           tblptru	equ	0xFF8
  7402                           tblptrh	equ	0xFF7
  7403                           tblptrl	equ	0xFF6
  7404                           tablat	equ	0xFF5
  7405                           prodh	equ	0xFF4
  7406                           prodl	equ	0xFF3
  7407                           intcon	equ	0xFF2
  7408                           indf0	equ	0xFEF
  7409                           postinc0	equ	0xFEE
  7410                           fsr0h	equ	0xFEA
  7411                           fsr0l	equ	0xFE9
  7412                           wreg	equ	0xFE8
  7413                           indf1	equ	0xFE7
  7414                           fsr1h	equ	0xFE2
  7415                           fsr1l	equ	0xFE1
  7416                           indf2	equ	0xFDF
  7417                           postinc2	equ	0xFDE
  7418                           postdec2	equ	0xFDD
  7419                           plusw2	equ	0xFDB
  7420                           fsr2h	equ	0xFDA
  7421                           fsr2l	equ	0xFD9
  7422                           status	equ	0xFD8
  7423                           
  7424 ;; *************** function _APP_DeviceCustomHIDInitialize *****************
  7425 ;; Defined at:
  7426 ;;		line 80 in file "../src/app_device_custom_hid.c"
  7427 ;; Parameters:    Size  Location     Type
  7428 ;;		None
  7429 ;; Auto vars:     Size  Location     Type
  7430 ;;		None
  7431 ;; Return value:  Size  Location     Type
  7432 ;;		None               void
  7433 ;; Registers used:
  7434 ;;		wreg, fsr2l, fsr2h, status,2, status,0, prodl, prodh, cstack
  7435 ;; Tracked objects:
  7436 ;;		On entry : 0/0
  7437 ;;		On exit  : 0/0
  7438 ;;		Unchanged: 0/0
  7439 ;; Data sizes:     COMRAM   BANK0   BANK1   BANK2   BANK3   BANK4   BANK5   BANK6   BANK7
  7440 ;;      Params:         0       0       0       0       0       0       0       0       0
  7441 ;;      Locals:         0       0       0       0       0       0       0       0       0
  7442 ;;      Temps:          0       0       0       0       0       0       0       0       0
  7443 ;;      Totals:         0       0       0       0       0       0       0       0       0
  7444 ;;Total ram usage:        0 bytes
  7445 ;; Hardware stack levels used:    1
  7446 ;; Hardware stack levels required when called:    2
  7447 ;; This function calls:
  7448 ;;		_USBEnableEndpoint
  7449 ;;		i2_USBTransferOnePacket
  7450 ;; This function is called by:
  7451 ;;		_USER_USB_CALLBACK_EVENT_HANDLER
  7452 ;; This function uses a non-reentrant model
  7453 ;;
  7454                           
  7455                           	psect	text36
  7456  00220A                     __ptext36:
  7457                           	opt stack 0
  7458  00220A                     _APP_DeviceCustomHIDInitialize:
  7459                           	opt stack 23
  7460                           
  7461                           ;app_device_custom_hid.c: 84: USBInHandle = 0;
  7462                           
  7463                           ;incstack = 0
  7464  00220A  0E00               	movlw	0
  7465  00220C  0100               	movlb	0	; () banked
  7466  00220E  6F71               	movwf	(_USBInHandle+1)& (0+255),b
  7467  002210  0E00               	movlw	0
  7468  002212  0100               	movlb	0	; () banked
  7469  002214  6F70               	movwf	_USBInHandle& (0+255),b
  7470                           
  7471                           ; BSR set to: 0
  7472                           ;app_device_custom_hid.c: 87: USBEnableEndpoint(1, 0x02|0x04|0x10|0x08);
  7473  002216  0E1E               	movlw	30
  7474  002218  6E09               	movwf	USBEnableEndpoint@options,c
  7475  00221A  0E01               	movlw	1
  7476  00221C  EC88  F010         	call	_USBEnableEndpoint
  7477                           
  7478                           ;app_device_custom_hid.c: 90: USBOutHandle = (volatile void*)USBTransferOnePacket(1,0,(u
      +                          int8_t*)&ReceivedDataBuffer,64);
  7479  002220  0E00               	movlw	0
  7480  002222  6E01               	movwf	i2USBTransferOnePacket@dir,c
  7481  002224  0105               	movlb	5	; () banked
  7482  002226  0E05               	movlw	5
  7483  002228  6E03               	movwf	i2USBTransferOnePacket@data+1,c
  7484  00222A  0105               	movlb	5	; () banked
  7485  00222C  0E00               	movlw	0
  7486  00222E  6E02               	movwf	i2USBTransferOnePacket@data,c
  7487  002230  0E40               	movlw	64
  7488  002232  6E04               	movwf	i2USBTransferOnePacket@len,c
  7489  002234  0E01               	movlw	1
  7490  002236  EC7B  F00D         	call	i2_USBTransferOnePacket
  7491  00223A  C001  F072         	movff	?i2_USBTransferOnePacket,_USBOutHandle
  7492  00223E  C002  F073         	movff	?i2_USBTransferOnePacket+1,_USBOutHandle+1
  7493  002242  0012               	return	
  7494  002244                     __end_of_APP_DeviceCustomHIDInitialize:
  7495                           	opt stack 0
  7496                           pclatu	equ	0xFFB
  7497                           pclath	equ	0xFFA
  7498                           tblptru	equ	0xFF8
  7499                           tblptrh	equ	0xFF7
  7500                           tblptrl	equ	0xFF6
  7501                           tablat	equ	0xFF5
  7502                           prodh	equ	0xFF4
  7503                           prodl	equ	0xFF3
  7504                           intcon	equ	0xFF2
  7505                           indf0	equ	0xFEF
  7506                           postinc0	equ	0xFEE
  7507                           fsr0h	equ	0xFEA
  7508                           fsr0l	equ	0xFE9
  7509                           wreg	equ	0xFE8
  7510                           indf1	equ	0xFE7
  7511                           fsr1h	equ	0xFE2
  7512                           fsr1l	equ	0xFE1
  7513                           indf2	equ	0xFDF
  7514                           postinc2	equ	0xFDE
  7515                           postdec2	equ	0xFDD
  7516                           plusw2	equ	0xFDB
  7517                           fsr2h	equ	0xFDA
  7518                           fsr2l	equ	0xFD9
  7519                           status	equ	0xFD8
  7520                           
  7521 ;; *************** function i2_USBTransferOnePacket *****************
  7522 ;; Defined at:
  7523 ;;		line 1014 in file "../src/usb_device.c"
  7524 ;; Parameters:    Size  Location     Type
  7525 ;;  ep              1    wreg     unsigned char 
  7526 ;;  dir             1    0[COMRAM] unsigned char 
  7527 ;;  data            2    1[COMRAM] PTR unsigned char 
  7528 ;;		 -> ToSendDataBuffer(64), ReceivedDataBuffer(64), 
  7529 ;;  len             1    3[COMRAM] unsigned char 
  7530 ;; Auto vars:     Size  Location     Type
  7531 ;;  ep              1    4[COMRAM] unsigned char 
  7532 ;;  USBTransferO    2    5[COMRAM] PTR volatile struct __BD
  7533 ;;		 -> BDT(32), NULL(0), 
  7534 ;; Return value:  Size  Location     Type
  7535 ;;                  2    0[COMRAM] PTR void 
  7536 ;; Registers used:
  7537 ;;		wreg, fsr2l, fsr2h, status,2, status,0, prodl, prodh
  7538 ;; Tracked objects:
  7539 ;;		On entry : 0/0
  7540 ;;		On exit  : 0/0
  7541 ;;		Unchanged: 0/0
  7542 ;; Data sizes:     COMRAM   BANK0   BANK1   BANK2   BANK3   BANK4   BANK5   BANK6   BANK7
  7543 ;;      Params:         4       0       0       0       0       0       0       0       0
  7544 ;;      Locals:         3       0       0       0       0       0       0       0       0
  7545 ;;      Temps:          0       0       0       0       0       0       0       0       0
  7546 ;;      Totals:         7       0       0       0       0       0       0       0       0
  7547 ;;Total ram usage:        7 bytes
  7548 ;; Hardware stack levels used:    1
  7549 ;; This function calls:
  7550 ;;		Nothing
  7551 ;; This function is called by:
  7552 ;;		_APP_DeviceCustomHIDInitialize
  7553 ;; This function uses a non-reentrant model
  7554 ;;
  7555                           
  7556                           	psect	text37
  7557  001AF6                     __ptext37:
  7558                           	opt stack 0
  7559  001AF6                     i2_USBTransferOnePacket:
  7560                           	opt stack 24
  7561                           
  7562                           ;incstack = 0
  7563                           ;i2USBTransferOnePacket@ep stored from wreg
  7564  001AF6  6E05               	movwf	i2USBTransferOnePacket@ep,c
  7565                           
  7566                           ;usb_device.c: 1016: volatile BDT_ENTRY* handle;
  7567                           ;usb_device.c: 1019: if(dir != 0)
  7568  001AF8  5001               	movf	i2USBTransferOnePacket@dir,w,c
  7569  001AFA  B4D8               	btfsc	status,2,c
  7570  001AFC  D009               	goto	i2l2694
  7571                           
  7572                           ;usb_device.c: 1020: {
  7573                           ;usb_device.c: 1022: handle = pBDTEntryIn[ep];
  7574  001AFE  5005               	movf	i2USBTransferOnePacket@ep,w,c
  7575  001B00  0D02               	mullw	2
  7576  001B02  0100               	movlb	0	; () banked
  7577  001B04  0E68               	movlw	low _pBDTEntryIn
  7578  001B06  24F3               	addwf	prodl,w,c
  7579  001B08  6ED9               	movwf	fsr2l,c
  7580  001B0A  0100               	movlb	0	; () banked
  7581  001B0C  0E00               	movlw	high _pBDTEntryIn
  7582  001B0E  D008               	goto	L26
  7583  001B10                     i2l2694:
  7584                           
  7585                           ;usb_device.c: 1024: else
  7586                           ;usb_device.c: 1025: {
  7587                           ;usb_device.c: 1027: handle = pBDTEntryOut[ep];
  7588  001B10  5005               	movf	i2USBTransferOnePacket@ep,w,c
  7589  001B12  0D02               	mullw	2
  7590  001B14  0100               	movlb	0	; () banked
  7591  001B16  0E6C               	movlw	low _pBDTEntryOut
  7592  001B18  24F3               	addwf	prodl,w,c
  7593  001B1A  6ED9               	movwf	fsr2l,c
  7594  001B1C  0100               	movlb	0	; () banked
  7595  001B1E  0E00               	movlw	high _pBDTEntryOut
  7596  001B20                     L26:
  7597  001B20  20F4               	addwfc	prodh,w,c
  7598  001B22  6EDA               	movwf	fsr2h,c
  7599  001B24  CFDE F006          	movff	postinc2,i2USBTransferOnePacket@handle
  7600  001B28  CFDD F007          	movff	postdec2,i2USBTransferOnePacket@handle+1
  7601                           
  7602                           ; BSR set to: 0
  7603                           ;usb_device.c: 1028: }
  7604                           ;usb_device.c: 1032: if(handle == 0)
  7605                           
  7606                           ; BSR set to: 0
  7607  001B2C  5007               	movf	i2USBTransferOnePacket@handle+1,w,c
  7608  001B2E  1006               	iorwf	i2USBTransferOnePacket@handle,w,c
  7609  001B30  A4D8               	btfss	status,2,c
  7610  001B32  D005               	goto	i2l2702
  7611                           
  7612                           ; BSR set to: 0
  7613                           ;usb_device.c: 1033: {
  7614                           ;usb_device.c: 1034: return 0;
  7615  001B34  0E00               	movlw	0
  7616  001B36  6E02               	movwf	?i2_USBTransferOnePacket+1,c
  7617  001B38  0E00               	movlw	0
  7618  001B3A  6E01               	movwf	?i2_USBTransferOnePacket,c
  7619  001B3C  D040               	goto	i2l452
  7620  001B3E                     i2l2702:
  7621                           
  7622                           ; BSR set to: 0
  7623                           ;usb_device.c: 1035: }
  7624                           ;usb_device.c: 1048: handle->ADR = ((uint16_t)(data));
  7625  001B3E  EE20 F002          	lfsr	2,2
  7626  001B42  5006               	movf	i2USBTransferOnePacket@handle,w,c
  7627  001B44  26D9               	addwf	fsr2l,f,c
  7628  001B46  5007               	movf	i2USBTransferOnePacket@handle+1,w,c
  7629  001B48  22DA               	addwfc	fsr2h,f,c
  7630  001B4A  C002  FFDE         	movff	i2USBTransferOnePacket@data,postinc2
  7631  001B4E  C003  FFDD         	movff	i2USBTransferOnePacket@data+1,postdec2
  7632                           
  7633                           ;usb_device.c: 1049: handle->CNT = len;
  7634  001B52  EE20 F001          	lfsr	2,1
  7635  001B56  5006               	movf	i2USBTransferOnePacket@handle,w,c
  7636  001B58  26D9               	addwf	fsr2l,f,c
  7637  001B5A  5007               	movf	i2USBTransferOnePacket@handle+1,w,c
  7638  001B5C  22DA               	addwfc	fsr2h,f,c
  7639  001B5E  C004  FFDF         	movff	i2USBTransferOnePacket@len,indf2
  7640                           
  7641                           ; BSR set to: 0
  7642                           ;usb_device.c: 1050: handle->STAT.Val &= 0x40;
  7643  001B62  C006  FFD9         	movff	i2USBTransferOnePacket@handle,fsr2l
  7644  001B66  C007  FFDA         	movff	i2USBTransferOnePacket@handle+1,fsr2h
  7645  001B6A  0E40               	movlw	64
  7646  001B6C  16DF               	andwf	indf2,f,c
  7647                           
  7648                           ; BSR set to: 0
  7649                           ;usb_device.c: 1051: handle->STAT.Val |= (0x08 & 0x08);
  7650  001B6E  C006  FFD9         	movff	i2USBTransferOnePacket@handle,fsr2l
  7651  001B72  C007  FFDA         	movff	i2USBTransferOnePacket@handle+1,fsr2h
  7652  001B76  0E00               	movlw	0
  7653  001B78  86DB               	bsf	plusw2,3,c
  7654                           
  7655                           ; BSR set to: 0
  7656                           ;usb_device.c: 1052: handle->STAT.Val |= 0x80;
  7657  001B7A  C006  FFD9         	movff	i2USBTransferOnePacket@handle,fsr2l
  7658  001B7E  C007  FFDA         	movff	i2USBTransferOnePacket@handle+1,fsr2h
  7659  001B82  0E00               	movlw	0
  7660  001B84  8EDB               	bsf	plusw2,7,c
  7661                           
  7662                           ; BSR set to: 0
  7663                           ;usb_device.c: 1055: if(dir != 0)
  7664  001B86  5001               	movf	i2USBTransferOnePacket@dir,w,c
  7665  001B88  B4D8               	btfsc	status,2,c
  7666  001B8A  D009               	goto	i2l2714
  7667                           
  7668                           ; BSR set to: 0
  7669                           ;usb_device.c: 1056: {
  7670                           ;usb_device.c: 1058: {((uint8_t_VAL*)&pBDTEntryIn[ep])->Val ^= 0x0004;};
  7671  001B8C  5005               	movf	i2USBTransferOnePacket@ep,w,c
  7672  001B8E  0D02               	mullw	2
  7673  001B90  0100               	movlb	0	; () banked
  7674  001B92  0E68               	movlw	low _pBDTEntryIn
  7675  001B94  24F3               	addwf	prodl,w,c
  7676  001B96  6ED9               	movwf	fsr2l,c
  7677  001B98  0100               	movlb	0	; () banked
  7678  001B9A  0E00               	movlw	high _pBDTEntryIn
  7679  001B9C  D008               	goto	L27
  7680  001B9E                     i2l2714:
  7681                           
  7682                           ; BSR set to: 0
  7683                           ;usb_device.c: 1060: else
  7684                           ;usb_device.c: 1061: {
  7685                           ;usb_device.c: 1063: {((uint8_t_VAL*)&pBDTEntryOut[ep])->Val ^= 0x0004;};
  7686  001B9E  5005               	movf	i2USBTransferOnePacket@ep,w,c
  7687  001BA0  0D02               	mullw	2
  7688  001BA2  0100               	movlb	0	; () banked
  7689  001BA4  0E6C               	movlw	low _pBDTEntryOut
  7690  001BA6  24F3               	addwf	prodl,w,c
  7691  001BA8  6ED9               	movwf	fsr2l,c
  7692  001BAA  0100               	movlb	0	; () banked
  7693  001BAC  0E00               	movlw	high _pBDTEntryOut
  7694  001BAE                     L27:
  7695  001BAE  20F4               	addwfc	prodh,w,c
  7696  001BB0  6EDA               	movwf	fsr2h,c
  7697  001BB2  0E04               	movlw	4
  7698  001BB4  1ADF               	xorwf	indf2,f,c
  7699                           
  7700                           ; BSR set to: 0
  7701                           ;usb_device.c: 1064: }
  7702                           ;usb_device.c: 1065: return (void*)handle;
  7703                           
  7704                           ; BSR set to: 0
  7705  001BB6  C007  F002         	movff	i2USBTransferOnePacket@handle+1,?i2_USBTransferOnePacket+1
  7706  001BBA  C006  F001         	movff	i2USBTransferOnePacket@handle,?i2_USBTransferOnePacket
  7707  001BBE                     i2l452:
  7708                           
  7709                           ; BSR set to: 0
  7710  001BBE  0012               	return	
  7711  001BC0                     __end_ofi2_USBTransferOnePacket:
  7712                           	opt stack 0
  7713                           pclatu	equ	0xFFB
  7714                           pclath	equ	0xFFA
  7715                           tblptru	equ	0xFF8
  7716                           tblptrh	equ	0xFF7
  7717                           tblptrl	equ	0xFF6
  7718                           tablat	equ	0xFF5
  7719                           prodh	equ	0xFF4
  7720                           prodl	equ	0xFF3
  7721                           intcon	equ	0xFF2
  7722                           indf0	equ	0xFEF
  7723                           postinc0	equ	0xFEE
  7724                           fsr0h	equ	0xFEA
  7725                           fsr0l	equ	0xFE9
  7726                           wreg	equ	0xFE8
  7727                           indf1	equ	0xFE7
  7728                           fsr1h	equ	0xFE2
  7729                           fsr1l	equ	0xFE1
  7730                           indf2	equ	0xFDF
  7731                           postinc2	equ	0xFDE
  7732                           postdec2	equ	0xFDD
  7733                           plusw2	equ	0xFDB
  7734                           fsr2h	equ	0xFDA
  7735                           fsr2l	equ	0xFD9
  7736                           status	equ	0xFD8
  7737                           
  7738 ;; *************** function _USBEnableEndpoint *****************
  7739 ;; Defined at:
  7740 ;;		line 897 in file "../src/usb_device.c"
  7741 ;; Parameters:    Size  Location     Type
  7742 ;;  ep              1    wreg     unsigned char 
  7743 ;;  options         1    8[COMRAM] unsigned char 
  7744 ;; Auto vars:     Size  Location     Type
  7745 ;;  ep              1   13[COMRAM] unsigned char 
  7746 ;;  p               2   11[COMRAM] PTR unsigned char 
  7747 ;;		 -> UEP0(1), 
  7748 ;; Return value:  Size  Location     Type
  7749 ;;		None               void
  7750 ;; Registers used:
  7751 ;;		wreg, fsr2l, fsr2h, status,2, status,0, prodl, prodh, cstack
  7752 ;; Tracked objects:
  7753 ;;		On entry : 0/0
  7754 ;;		On exit  : 0/0
  7755 ;;		Unchanged: 0/0
  7756 ;; Data sizes:     COMRAM   BANK0   BANK1   BANK2   BANK3   BANK4   BANK5   BANK6   BANK7
  7757 ;;      Params:         1       0       0       0       0       0       0       0       0
  7758 ;;      Locals:         3       0       0       0       0       0       0       0       0
  7759 ;;      Temps:          2       0       0       0       0       0       0       0       0
  7760 ;;      Totals:         6       0       0       0       0       0       0       0       0
  7761 ;;Total ram usage:        6 bytes
  7762 ;; Hardware stack levels used:    1
  7763 ;; Hardware stack levels required when called:    1
  7764 ;; This function calls:
  7765 ;;		_USBConfigureEndpoint
  7766 ;; This function is called by:
  7767 ;;		_APP_DeviceCustomHIDInitialize
  7768 ;; This function uses a non-reentrant model
  7769 ;;
  7770                           
  7771                           	psect	text38
  7772  002110                     __ptext38:
  7773                           	opt stack 0
  7774  002110                     _USBEnableEndpoint:
  7775                           	opt stack 23
  7776                           
  7777                           ; BSR set to: 0
  7778                           ;incstack = 0
  7779                           ;USBEnableEndpoint@ep stored from wreg
  7780  002110  6E0E               	movwf	USBEnableEndpoint@ep,c
  7781                           
  7782                           ;usb_device.c: 899: unsigned char* p;
  7783                           ;usb_device.c: 903: if(options & 0x04)
  7784  002112  A409               	btfss	USBEnableEndpoint@options,2,c
  7785  002114  D005               	goto	i2l2670
  7786                           
  7787                           ;usb_device.c: 904: {
  7788                           ;usb_device.c: 905: USBConfigureEndpoint(ep, 0);
  7789  002116  0E00               	movlw	0
  7790  002118  6E01               	movwf	USBConfigureEndpoint@direction,c
  7791  00211A  500E               	movf	USBEnableEndpoint@ep,w,c
  7792  00211C  ECE6  F00E         	call	_USBConfigureEndpoint
  7793  002120                     i2l2670:
  7794                           
  7795                           ;usb_device.c: 906: }
  7796                           ;usb_device.c: 907: if(options & 0x02)
  7797  002120  A209               	btfss	USBEnableEndpoint@options,1,c
  7798  002122  D005               	goto	i2l2674
  7799                           
  7800                           ;usb_device.c: 908: {
  7801                           ;usb_device.c: 909: USBConfigureEndpoint(ep, 1);
  7802  002124  0E01               	movlw	1
  7803  002126  6E01               	movwf	USBConfigureEndpoint@direction,c
  7804  002128  500E               	movf	USBEnableEndpoint@ep,w,c
  7805  00212A  ECE6  F00E         	call	_USBConfigureEndpoint
  7806  00212E                     i2l2674:
  7807                           
  7808                           ;usb_device.c: 910: }
  7809                           ;usb_device.c: 918: p = (unsigned char*)(&UEP0+ep);
  7810  00212E  500E               	movf	USBEnableEndpoint@ep,w,c
  7811  002130  0D01               	mullw	1
  7812  002132  0E70               	movlw	112	;volatile
  7813  002134  6E0A               	movwf	??_USBEnableEndpoint& (0+255),c
  7814  002136  0E0F               	movlw	15	;volatile
  7815  002138  6E0B               	movwf	(??_USBEnableEndpoint+1)& (0+255),c
  7816  00213A  50F3               	movf	prodl,w,c
  7817  00213C  260A               	addwf	??_USBEnableEndpoint,f,c
  7818  00213E  50F4               	movf	prodh,w,c
  7819  002140  220B               	addwfc	??_USBEnableEndpoint+1,f,c
  7820  002142  C00A  F00C         	movff	??_USBEnableEndpoint,USBEnableEndpoint@p
  7821  002146  C00B  F00D         	movff	??_USBEnableEndpoint+1,USBEnableEndpoint@p+1
  7822                           
  7823                           ;usb_device.c: 920: *p = options;
  7824  00214A  C00C  FFD9         	movff	USBEnableEndpoint@p,fsr2l
  7825  00214E  C00D  FFDA         	movff	USBEnableEndpoint@p+1,fsr2h
  7826  002152  C009  FFDF         	movff	USBEnableEndpoint@options,indf2
  7827  002156  0012               	return	
  7828  002158                     __end_of_USBEnableEndpoint:
  7829                           	opt stack 0
  7830                           pclatu	equ	0xFFB
  7831                           pclath	equ	0xFFA
  7832                           tblptru	equ	0xFF8
  7833                           tblptrh	equ	0xFF7
  7834                           tblptrl	equ	0xFF6
  7835                           tablat	equ	0xFF5
  7836                           prodh	equ	0xFF4
  7837                           prodl	equ	0xFF3
  7838                           intcon	equ	0xFF2
  7839                           indf0	equ	0xFEF
  7840                           postinc0	equ	0xFEE
  7841                           fsr0h	equ	0xFEA
  7842                           fsr0l	equ	0xFE9
  7843                           wreg	equ	0xFE8
  7844                           indf1	equ	0xFE7
  7845                           fsr1h	equ	0xFE2
  7846                           fsr1l	equ	0xFE1
  7847                           indf2	equ	0xFDF
  7848                           postinc2	equ	0xFDE
  7849                           postdec2	equ	0xFDD
  7850                           plusw2	equ	0xFDB
  7851                           fsr2h	equ	0xFDA
  7852                           fsr2l	equ	0xFD9
  7853                           status	equ	0xFD8
  7854                           
  7855 ;; *************** function _USBConfigureEndpoint *****************
  7856 ;; Defined at:
  7857 ;;		line 1562 in file "../src/usb_device.c"
  7858 ;; Parameters:    Size  Location     Type
  7859 ;;  EPNum           1    wreg     unsigned char 
  7860 ;;  direction       1    0[COMRAM] unsigned char 
  7861 ;; Auto vars:     Size  Location     Type
  7862 ;;  EPNum           1    5[COMRAM] unsigned char 
  7863 ;;  handle          2    6[COMRAM] PTR volatile struct __BD
  7864 ;;		 -> BDT(32), 
  7865 ;; Return value:  Size  Location     Type
  7866 ;;		None               void
  7867 ;; Registers used:
  7868 ;;		wreg, fsr2l, fsr2h, status,2, status,0, prodl, prodh
  7869 ;; Tracked objects:
  7870 ;;		On entry : 0/0
  7871 ;;		On exit  : 0/0
  7872 ;;		Unchanged: 0/0
  7873 ;; Data sizes:     COMRAM   BANK0   BANK1   BANK2   BANK3   BANK4   BANK5   BANK6   BANK7
  7874 ;;      Params:         1       0       0       0       0       0       0       0       0
  7875 ;;      Locals:         3       0       0       0       0       0       0       0       0
  7876 ;;      Temps:          4       0       0       0       0       0       0       0       0
  7877 ;;      Totals:         8       0       0       0       0       0       0       0       0
  7878 ;;Total ram usage:        8 bytes
  7879 ;; Hardware stack levels used:    1
  7880 ;; This function calls:
  7881 ;;		Nothing
  7882 ;; This function is called by:
  7883 ;;		_USBEnableEndpoint
  7884 ;; This function uses a non-reentrant model
  7885 ;;
  7886                           
  7887                           	psect	text39
  7888  001DCC                     __ptext39:
  7889                           	opt stack 0
  7890  001DCC                     _USBConfigureEndpoint:
  7891                           	opt stack 23
  7892                           
  7893                           ;incstack = 0
  7894                           ;USBConfigureEndpoint@EPNum stored from wreg
  7895  001DCC  6E06               	movwf	USBConfigureEndpoint@EPNum,c
  7896                           
  7897                           ;usb_device.c: 1564: volatile BDT_ENTRY* handle;
  7898                           ;usb_device.c: 1568: handle = (volatile BDT_ENTRY*)&BDT[0];
  7899  001DCE  0104               	movlb	4	; () banked
  7900  001DD0  0E04               	movlw	4	;volatile
  7901  001DD2  6E08               	movwf	USBConfigureEndpoint@handle+1,c
  7902  001DD4  0104               	movlb	4	; () banked
  7903  001DD6  0E00               	movlw	0	;volatile
  7904  001DD8  6E07               	movwf	USBConfigureEndpoint@handle,c
  7905                           
  7906                           ; BSR set to: 4
  7907                           ;usb_device.c: 1569: handle += (4*EPNum+2*direction+0u);
  7908  001DDA  5001               	movf	USBConfigureEndpoint@direction,w,c
  7909  001DDC  6E02               	movwf	??_USBConfigureEndpoint& (0+255),c
  7910  001DDE  6A03               	clrf	(??_USBConfigureEndpoint+1)& (0+255),c
  7911  001DE0  90D8               	bcf	status,0,c
  7912  001DE2  3602               	rlcf	??_USBConfigureEndpoint,f,c
  7913  001DE4  3603               	rlcf	??_USBConfigureEndpoint+1,f,c
  7914  001DE6  5006               	movf	USBConfigureEndpoint@EPNum,w,c
  7915  001DE8  6E04               	movwf	(??_USBConfigureEndpoint+2)& (0+255),c
  7916  001DEA  6A05               	clrf	(??_USBConfigureEndpoint+3)& (0+255),c
  7917  001DEC  90D8               	bcf	status,0,c
  7918  001DEE  3604               	rlcf	??_USBConfigureEndpoint+2,f,c
  7919  001DF0  3605               	rlcf	??_USBConfigureEndpoint+3,f,c
  7920  001DF2  90D8               	bcf	status,0,c
  7921  001DF4  3604               	rlcf	??_USBConfigureEndpoint+2,f,c
  7922  001DF6  3605               	rlcf	??_USBConfigureEndpoint+3,f,c
  7923  001DF8  5002               	movf	??_USBConfigureEndpoint,w,c
  7924  001DFA  2604               	addwf	??_USBConfigureEndpoint+2,f,c
  7925  001DFC  5003               	movf	??_USBConfigureEndpoint+1,w,c
  7926  001DFE  2205               	addwfc	??_USBConfigureEndpoint+3,f,c
  7927  001E00  90D8               	bcf	status,0,c
  7928  001E02  3604               	rlcf	??_USBConfigureEndpoint+2,f,c
  7929  001E04  3605               	rlcf	??_USBConfigureEndpoint+3,f,c
  7930  001E06  90D8               	bcf	status,0,c
  7931  001E08  3604               	rlcf	??_USBConfigureEndpoint+2,f,c
  7932  001E0A  3605               	rlcf	??_USBConfigureEndpoint+3,f,c
  7933  001E0C  5004               	movf	??_USBConfigureEndpoint+2,w,c
  7934  001E0E  2607               	addwf	USBConfigureEndpoint@handle,f,c
  7935  001E10  5005               	movf	??_USBConfigureEndpoint+3,w,c
  7936  001E12  2208               	addwfc	USBConfigureEndpoint@handle+1,f,c
  7937                           
  7938                           ; BSR set to: 4
  7939                           ;usb_device.c: 1571: handle->STAT.UOWN = 0;
  7940  001E14  C007  FFD9         	movff	USBConfigureEndpoint@handle,fsr2l
  7941  001E18  C008  FFDA         	movff	USBConfigureEndpoint@handle+1,fsr2h
  7942  001E1C  9EDF               	bcf	indf2,7,c
  7943                           
  7944                           ; BSR set to: 4
  7945                           ;usb_device.c: 1576: if(direction == 0)
  7946  001E1E  6601               	tstfsz	USBConfigureEndpoint@direction,c
  7947  001E20  D009               	goto	i2l2660
  7948                           
  7949                           ; BSR set to: 4
  7950                           ;usb_device.c: 1577: {
  7951                           ;usb_device.c: 1578: pBDTEntryOut[EPNum] = handle;
  7952  001E22  5006               	movf	USBConfigureEndpoint@EPNum,w,c
  7953  001E24  0D02               	mullw	2
  7954  001E26  0100               	movlb	0	; () banked
  7955  001E28  0E6C               	movlw	low _pBDTEntryOut
  7956  001E2A  24F3               	addwf	prodl,w,c
  7957  001E2C  6ED9               	movwf	fsr2l,c
  7958  001E2E  0100               	movlb	0	; () banked
  7959  001E30  0E00               	movlw	high _pBDTEntryOut
  7960  001E32  D008               	goto	L28
  7961  001E34                     i2l2660:
  7962                           
  7963                           ;usb_device.c: 1580: else
  7964                           ;usb_device.c: 1581: {
  7965                           ;usb_device.c: 1582: pBDTEntryIn[EPNum] = handle;
  7966  001E34  5006               	movf	USBConfigureEndpoint@EPNum,w,c
  7967  001E36  0D02               	mullw	2
  7968  001E38  0100               	movlb	0	; () banked
  7969  001E3A  0E68               	movlw	low _pBDTEntryIn
  7970  001E3C  24F3               	addwf	prodl,w,c
  7971  001E3E  6ED9               	movwf	fsr2l,c
  7972  001E40  0100               	movlb	0	; () banked
  7973  001E42  0E00               	movlw	high _pBDTEntryIn
  7974  001E44                     L28:
  7975  001E44  20F4               	addwfc	prodh,w,c
  7976  001E46  6EDA               	movwf	fsr2h,c
  7977  001E48  C007  FFDE         	movff	USBConfigureEndpoint@handle,postinc2
  7978  001E4C  C008  FFDD         	movff	USBConfigureEndpoint@handle+1,postdec2
  7979                           
  7980                           ; BSR set to: 0
  7981                           ;usb_device.c: 1583: }
  7982                           ;usb_device.c: 1586: handle->STAT.DTS = 0;
  7983                           
  7984                           ; BSR set to: 0
  7985  001E50  C007  FFD9         	movff	USBConfigureEndpoint@handle,fsr2l
  7986  001E54  C008  FFDA         	movff	USBConfigureEndpoint@handle+1,fsr2h
  7987  001E58  9CDF               	bcf	indf2,6,c
  7988                           
  7989                           ; BSR set to: 0
  7990                           ;usb_device.c: 1587: (handle+1)->STAT.DTS = 1;
  7991  001E5A  EE20 F004          	lfsr	2,4
  7992  001E5E  5007               	movf	USBConfigureEndpoint@handle,w,c
  7993  001E60  26D9               	addwf	fsr2l,f,c
  7994  001E62  5008               	movf	USBConfigureEndpoint@handle+1,w,c
  7995  001E64  22DA               	addwfc	fsr2h,f,c
  7996  001E66  8CDF               	bsf	indf2,6,c
  7997                           
  7998                           ; BSR set to: 0
  7999  001E68  0012               	return	
  8000  001E6A                     __end_of_USBConfigureEndpoint:
  8001                           	opt stack 0
  8002                           pclatu	equ	0xFFB
  8003                           pclath	equ	0xFFA
  8004                           tblptru	equ	0xFF8
  8005                           tblptrh	equ	0xFF7
  8006                           tblptrl	equ	0xFF6
  8007                           tablat	equ	0xFF5
  8008                           prodh	equ	0xFF4
  8009                           prodl	equ	0xFF3
  8010                           intcon	equ	0xFF2
  8011                           indf0	equ	0xFEF
  8012                           postinc0	equ	0xFEE
  8013                           fsr0h	equ	0xFEA
  8014                           fsr0l	equ	0xFE9
  8015                           wreg	equ	0xFE8
  8016                           indf1	equ	0xFE7
  8017                           fsr1h	equ	0xFE2
  8018                           fsr1l	equ	0xFE1
  8019                           indf2	equ	0xFDF
  8020                           postinc2	equ	0xFDE
  8021                           postdec2	equ	0xFDD
  8022                           plusw2	equ	0xFDB
  8023                           fsr2h	equ	0xFDA
  8024                           fsr2l	equ	0xFD9
  8025                           status	equ	0xFD8
  8026                           
  8027 ;; *************** function _USBCtrlTrfOutHandler *****************
  8028 ;; Defined at:
  8029 ;;		line 2563 in file "../src/usb_device.c"
  8030 ;; Parameters:    Size  Location     Type
  8031 ;;		None
  8032 ;; Auto vars:     Size  Location     Type
  8033 ;;		None
  8034 ;; Return value:  Size  Location     Type
  8035 ;;		None               void
  8036 ;; Registers used:
  8037 ;;		wreg, fsr1l, fsr1h, fsr2l, fsr2h, status,2, status,0, prodl, prodh, cstack
  8038 ;; Tracked objects:
  8039 ;;		On entry : 0/0
  8040 ;;		On exit  : 0/0
  8041 ;;		Unchanged: 0/0
  8042 ;; Data sizes:     COMRAM   BANK0   BANK1   BANK2   BANK3   BANK4   BANK5   BANK6   BANK7
  8043 ;;      Params:         0       0       0       0       0       0       0       0       0
  8044 ;;      Locals:         0       0       0       0       0       0       0       0       0
  8045 ;;      Temps:          0       0       0       0       0       0       0       0       0
  8046 ;;      Totals:         0       0       0       0       0       0       0       0       0
  8047 ;;Total ram usage:        0 bytes
  8048 ;; Hardware stack levels used:    1
  8049 ;; Hardware stack levels required when called:    2
  8050 ;; This function calls:
  8051 ;;		_USBCtrlTrfRxService
  8052 ;; This function is called by:
  8053 ;;		_USBCtrlEPService
  8054 ;; This function uses a non-reentrant model
  8055 ;;
  8056                           
  8057                           	psect	text40
  8058  0020B6                     __ptext40:
  8059                           	opt stack 0
  8060  0020B6                     _USBCtrlTrfOutHandler:
  8061                           	opt stack 23
  8062                           
  8063                           ;usb_device.c: 2565: if(controlTransferState == 2)
  8064                           
  8065                           ; BSR set to: 0
  8066                           ;incstack = 0
  8067  0020B6  5049               	movf	_controlTransferState,w,c	;volatile
  8068  0020B8  0A02               	xorlw	2
  8069  0020BA  A4D8               	btfss	status,2,c
  8070  0020BC  D003               	goto	i2l3298
  8071                           
  8072                           ;usb_device.c: 2566: {
  8073                           ;usb_device.c: 2567: USBCtrlTrfRxService();
  8074  0020BE  EC4E  F009         	call	_USBCtrlTrfRxService	;wreg free
  8075                           
  8076                           ;usb_device.c: 2568: }
  8077  0020C2  D025               	goto	i2l603
  8078  0020C4                     i2l3298:
  8079                           
  8080                           ;usb_device.c: 2569: else
  8081                           ;usb_device.c: 2570: {
  8082                           ;usb_device.c: 2573: controlTransferState = 0;
  8083  0020C4  0E00               	movlw	0
  8084  0020C6  6E49               	movwf	_controlTransferState,c	;volatile
  8085                           
  8086                           ;usb_device.c: 2580: if(BothEP0OutUOWNsSet == 0)
  8087  0020C8  663F               	tstfsz	_BothEP0OutUOWNsSet,c	;volatile
  8088  0020CA  D01F               	goto	i2l3308
  8089                           
  8090                           ;usb_device.c: 2581: {
  8091                           ;usb_device.c: 2582: pBDTEntryEP0OutNext->CNT = 8;
  8092  0020CC  EE20 F001          	lfsr	2,1
  8093  0020D0  503B               	movf	_pBDTEntryEP0OutNext,w,c
  8094  0020D2  26D9               	addwf	fsr2l,f,c
  8095  0020D4  503C               	movf	_pBDTEntryEP0OutNext+1,w,c
  8096  0020D6  22DA               	addwfc	fsr2h,f,c
  8097  0020D8  0E08               	movlw	8
  8098  0020DA  6EDF               	movwf	indf2,c
  8099                           
  8100                           ;usb_device.c: 2583: pBDTEntryEP0OutNext->ADR = ((uint16_t)(&SetupPkt));
  8101  0020DC  EE20 F002          	lfsr	2,2
  8102  0020E0  503B               	movf	_pBDTEntryEP0OutNext,w,c
  8103  0020E2  26D9               	addwf	fsr2l,f,c
  8104  0020E4  503C               	movf	_pBDTEntryEP0OutNext+1,w,c
  8105  0020E6  22DA               	addwfc	fsr2h,f,c
  8106  0020E8  0E20               	movlw	32
  8107  0020EA  6EDE               	movwf	postinc2,c
  8108  0020EC  0E04               	movlw	4
  8109  0020EE  6EDD               	movwf	postdec2,c
  8110                           
  8111                           ;usb_device.c: 2584: pBDTEntryEP0OutNext->STAT.Val = 0x00|(0x08 & 0x08)|0x04;
  8112  0020F0  C03B  FFD9         	movff	_pBDTEntryEP0OutNext,fsr2l
  8113  0020F4  C03C  FFDA         	movff	_pBDTEntryEP0OutNext+1,fsr2h
  8114  0020F8  0E0C               	movlw	12
  8115  0020FA  6EDF               	movwf	indf2,c
  8116                           
  8117                           ;usb_device.c: 2585: pBDTEntryEP0OutNext->STAT.Val |= 0x80;
  8118  0020FC  C03B  FFD9         	movff	_pBDTEntryEP0OutNext,fsr2l
  8119  002100  C03C  FFDA         	movff	_pBDTEntryEP0OutNext+1,fsr2h
  8120  002104  0E00               	movlw	0
  8121  002106  8EDB               	bsf	plusw2,7,c
  8122                           
  8123                           ;usb_device.c: 2586: }
  8124  002108  D002               	goto	i2l603
  8125  00210A                     i2l3308:
  8126                           
  8127                           ;usb_device.c: 2587: else
  8128                           ;usb_device.c: 2588: {
  8129                           ;usb_device.c: 2589: BothEP0OutUOWNsSet = 0;
  8130  00210A  0E00               	movlw	0
  8131  00210C  6E3F               	movwf	_BothEP0OutUOWNsSet,c	;volatile
  8132  00210E                     i2l603:
  8133  00210E  0012               	return	
  8134  002110                     __end_of_USBCtrlTrfOutHandler:
  8135                           	opt stack 0
  8136                           pclatu	equ	0xFFB
  8137                           pclath	equ	0xFFA
  8138                           tblptru	equ	0xFF8
  8139                           tblptrh	equ	0xFF7
  8140                           tblptrl	equ	0xFF6
  8141                           tablat	equ	0xFF5
  8142                           prodh	equ	0xFF4
  8143                           prodl	equ	0xFF3
  8144                           intcon	equ	0xFF2
  8145                           indf0	equ	0xFEF
  8146                           postinc0	equ	0xFEE
  8147                           fsr0h	equ	0xFEA
  8148                           fsr0l	equ	0xFE9
  8149                           wreg	equ	0xFE8
  8150                           indf1	equ	0xFE7
  8151                           fsr1h	equ	0xFE2
  8152                           fsr1l	equ	0xFE1
  8153                           indf2	equ	0xFDF
  8154                           postinc2	equ	0xFDE
  8155                           postdec2	equ	0xFDD
  8156                           plusw2	equ	0xFDB
  8157                           fsr2h	equ	0xFDA
  8158                           fsr2l	equ	0xFD9
  8159                           status	equ	0xFD8
  8160                           
  8161 ;; *************** function _USBCtrlTrfRxService *****************
  8162 ;; Defined at:
  8163 ;;		line 1871 in file "../src/usb_device.c"
  8164 ;; Parameters:    Size  Location     Type
  8165 ;;		None
  8166 ;; Auto vars:     Size  Location     Type
  8167 ;;  byteToRead      1    1[COMRAM] unsigned char 
  8168 ;;  i               1    0[COMRAM] unsigned char 
  8169 ;; Return value:  Size  Location     Type
  8170 ;;		None               void
  8171 ;; Registers used:
  8172 ;;		wreg, fsr1l, fsr1h, fsr2l, fsr2h, status,2, status,0, prodl, prodh, cstack
  8173 ;; Tracked objects:
  8174 ;;		On entry : 0/0
  8175 ;;		On exit  : 0/0
  8176 ;;		Unchanged: 0/0
  8177 ;; Data sizes:     COMRAM   BANK0   BANK1   BANK2   BANK3   BANK4   BANK5   BANK6   BANK7
  8178 ;;      Params:         0       0       0       0       0       0       0       0       0
  8179 ;;      Locals:         2       0       0       0       0       0       0       0       0
  8180 ;;      Temps:          0       0       0       0       0       0       0       0       0
  8181 ;;      Totals:         2       0       0       0       0       0       0       0       0
  8182 ;;Total ram usage:        2 bytes
  8183 ;; Hardware stack levels used:    1
  8184 ;; Hardware stack levels required when called:    1
  8185 ;; This function calls:
  8186 ;;		_USBCtrlEPAllowStatusStage
  8187 ;; This function is called by:
  8188 ;;		_USBCtrlTrfOutHandler
  8189 ;; This function uses a non-reentrant model
  8190 ;;
  8191                           
  8192                           	psect	text41
  8193  00129C                     __ptext41:
  8194                           	opt stack 0
  8195  00129C                     _USBCtrlTrfRxService:
  8196                           	opt stack 23
  8197                           
  8198                           ;usb_device.c: 1873: uint8_t byteToRead;
  8199                           ;usb_device.c: 1874: uint8_t i;
  8200                           ;usb_device.c: 1878: byteToRead = pBDTEntryEP0OutCurrent->CNT;
  8201                           
  8202                           ;incstack = 0
  8203  00129C  EE20 F001          	lfsr	2,1
  8204  0012A0  5039               	movf	_pBDTEntryEP0OutCurrent,w,c
  8205  0012A2  26D9               	addwf	fsr2l,f,c
  8206  0012A4  503A               	movf	_pBDTEntryEP0OutCurrent+1,w,c
  8207  0012A6  22DA               	addwfc	fsr2h,f,c
  8208  0012A8  50DF               	movf	indf2,w,c
  8209  0012AA  6E02               	movwf	USBCtrlTrfRxService@byteToRead,c
  8210                           
  8211                           ;usb_device.c: 1884: if(byteToRead > outPipes[0].wCount.Val)
  8212  0012AC  5002               	movf	USBCtrlTrfRxService@byteToRead,w,c
  8213  0012AE  0100               	movlb	0	; () banked
  8214  0012B0  5D64               	subwf	(_outPipes+4)& (0+255),w,b	;volatile
  8215  0012B2  0E00               	movlw	0
  8216  0012B4  0100               	movlb	0	; () banked
  8217  0012B6  5965               	subwfb	(_outPipes+5)& (0+255),w,b	;volatile
  8218  0012B8  A0D8               	btfss	status,0,c
  8219                           
  8220                           ; BSR set to: 0
  8221                           ;usb_device.c: 1885: {
  8222                           ;usb_device.c: 1886: byteToRead = outPipes[0].wCount.Val;
  8223  0012BA  C064  F002         	movff	_outPipes+4,USBCtrlTrfRxService@byteToRead	;volatile
  8224                           
  8225                           ; BSR set to: 0
  8226                           ;usb_device.c: 1887: }
  8227                           ;usb_device.c: 1889: outPipes[0].wCount.Val -= byteToRead;
  8228                           
  8229                           ; BSR set to: 0
  8230  0012BE  5002               	movf	USBCtrlTrfRxService@byteToRead,w,c
  8231  0012C0  0100               	movlb	0	; () banked
  8232  0012C2  5F64               	subwf	(_outPipes+4)& (0+255),f,b	;volatile
  8233  0012C4  0E00               	movlw	0
  8234  0012C6  0100               	movlb	0	; () banked
  8235  0012C8  5B65               	subwfb	(_outPipes+5)& (0+255),f,b	;volatile
  8236                           
  8237                           ; BSR set to: 0
  8238                           ;usb_device.c: 1893: for(i=0;i<byteToRead;i++)
  8239  0012CA  0E00               	movlw	0
  8240  0012CC  6E01               	movwf	USBCtrlTrfRxService@i,c
  8241  0012CE  D014               	goto	i2l3204
  8242  0012D0                     i2l3198:
  8243                           
  8244                           ; BSR set to: 0
  8245                           ;usb_device.c: 1894: {
  8246                           ;usb_device.c: 1895: *outPipes[0].pDst.bRam++ = CtrlTrfData[i];
  8247  0012D0  5001               	movf	USBCtrlTrfRxService@i,w,c
  8248  0012D2  0D01               	mullw	1
  8249  0012D4  0104               	movlb	4	; () banked
  8250  0012D6  0E28               	movlw	40	;volatile
  8251  0012D8  24F3               	addwf	prodl,w,c
  8252  0012DA  6ED9               	movwf	fsr2l,c
  8253  0012DC  0104               	movlb	4	; () banked
  8254  0012DE  0E04               	movlw	4	;volatile
  8255  0012E0  20F4               	addwfc	prodh,w,c
  8256  0012E2  6EDA               	movwf	fsr2h,c
  8257  0012E4  C060  FFE1         	movff	_outPipes,fsr1l	;volatile
  8258  0012E8  C061  FFE2         	movff	_outPipes+1,fsr1h	;volatile
  8259  0012EC  CFDF FFE7          	movff	indf2,indf1
  8260                           
  8261                           ; BSR set to: 4
  8262  0012F0  0100               	movlb	0	; () banked
  8263  0012F2  4B60               	infsnz	_outPipes& (0+255),f,b	;volatile
  8264  0012F4  2B61               	incf	(_outPipes+1)& (0+255),f,b	;volatile
  8265                           
  8266                           ; BSR set to: 0
  8267  0012F6  2A01               	incf	USBCtrlTrfRxService@i,f,c
  8268  0012F8                     i2l3204:
  8269                           
  8270                           ; BSR set to: 0
  8271  0012F8  5002               	movf	USBCtrlTrfRxService@byteToRead,w,c
  8272  0012FA  5C01               	subwf	USBCtrlTrfRxService@i,w,c
  8273  0012FC  A0D8               	btfss	status,0,c
  8274  0012FE  D7E8               	goto	i2l3198
  8275                           
  8276                           ; BSR set to: 0
  8277                           ;usb_device.c: 1896: }
  8278                           ;usb_device.c: 1900: if(outPipes[0].wCount.Val > 0)
  8279                           
  8280                           ; BSR set to: 0
  8281  001300  0100               	movlb	0	; () banked
  8282  001302  5165               	movf	(_outPipes+5)& (0+255),w,b	;volatile
  8283  001304  1164               	iorwf	(_outPipes+4)& (0+255),w,b	;volatile
  8284  001306  B4D8               	btfsc	status,2,c
  8285  001308  D02B               	goto	i2l3220
  8286                           
  8287                           ; BSR set to: 0
  8288                           ;usb_device.c: 1901: {
  8289                           ;usb_device.c: 1902: pBDTEntryEP0OutNext->CNT = 8;
  8290  00130A  EE20 F001          	lfsr	2,1
  8291  00130E  503B               	movf	_pBDTEntryEP0OutNext,w,c
  8292  001310  26D9               	addwf	fsr2l,f,c
  8293  001312  503C               	movf	_pBDTEntryEP0OutNext+1,w,c
  8294  001314  22DA               	addwfc	fsr2h,f,c
  8295  001316  0E08               	movlw	8
  8296  001318  6EDF               	movwf	indf2,c
  8297                           
  8298                           ;usb_device.c: 1903: pBDTEntryEP0OutNext->ADR = ((uint16_t)(&CtrlTrfData));
  8299  00131A  EE20 F002          	lfsr	2,2
  8300  00131E  503B               	movf	_pBDTEntryEP0OutNext,w,c
  8301  001320  26D9               	addwf	fsr2l,f,c
  8302  001322  503C               	movf	_pBDTEntryEP0OutNext+1,w,c
  8303  001324  22DA               	addwfc	fsr2h,f,c
  8304  001326  0E28               	movlw	40
  8305  001328  6EDE               	movwf	postinc2,c
  8306  00132A  0E04               	movlw	4
  8307  00132C  6EDD               	movwf	postdec2,c
  8308                           
  8309                           ; BSR set to: 0
  8310                           ;usb_device.c: 1904: if(pBDTEntryEP0OutCurrent->STAT.DTS == 0)
  8311  00132E  C039  FFD9         	movff	_pBDTEntryEP0OutCurrent,fsr2l
  8312  001332  C03A  FFDA         	movff	_pBDTEntryEP0OutCurrent+1,fsr2h
  8313  001336  BCDF               	btfsc	indf2,6,c
  8314  001338  D006               	goto	i2l3216
  8315                           
  8316                           ; BSR set to: 0
  8317                           ;usb_device.c: 1905: {
  8318                           ;usb_device.c: 1906: pBDTEntryEP0OutNext->STAT.Val = 0x40|(0x08 & 0x08);
  8319  00133A  C03B  FFD9         	movff	_pBDTEntryEP0OutNext,fsr2l
  8320  00133E  C03C  FFDA         	movff	_pBDTEntryEP0OutNext+1,fsr2h
  8321  001342  0E48               	movlw	72
  8322  001344  D005               	goto	L29
  8323  001346                     i2l3216:
  8324                           
  8325                           ; BSR set to: 0
  8326                           ;usb_device.c: 1909: else
  8327                           ;usb_device.c: 1910: {
  8328                           ;usb_device.c: 1911: pBDTEntryEP0OutNext->STAT.Val = 0x00|(0x08 & 0x08);
  8329  001346  C03B  FFD9         	movff	_pBDTEntryEP0OutNext,fsr2l
  8330  00134A  C03C  FFDA         	movff	_pBDTEntryEP0OutNext+1,fsr2h
  8331  00134E  0E08               	movlw	8
  8332  001350                     L29:
  8333  001350  6EDF               	movwf	indf2,c
  8334                           
  8335                           ; BSR set to: 0
  8336                           ;usb_device.c: 1912: pBDTEntryEP0OutNext->STAT.Val |= 0x80;
  8337  001352  C03B  FFD9         	movff	_pBDTEntryEP0OutNext,fsr2l
  8338  001356  C03C  FFDA         	movff	_pBDTEntryEP0OutNext+1,fsr2h
  8339  00135A  0E00               	movlw	0
  8340  00135C  8EDB               	bsf	plusw2,7,c
  8341  00135E  D024               	goto	i2l534
  8342  001360                     i2l3220:
  8343                           
  8344                           ; BSR set to: 0
  8345                           ;usb_device.c: 1915: else
  8346                           ;usb_device.c: 1916: {
  8347                           ;usb_device.c: 1920: pBDTEntryEP0OutNext->CNT = 8;
  8348  001360  EE20 F001          	lfsr	2,1
  8349  001364  503B               	movf	_pBDTEntryEP0OutNext,w,c
  8350  001366  26D9               	addwf	fsr2l,f,c
  8351  001368  503C               	movf	_pBDTEntryEP0OutNext+1,w,c
  8352  00136A  22DA               	addwfc	fsr2h,f,c
  8353  00136C  0E08               	movlw	8
  8354  00136E  6EDF               	movwf	indf2,c
  8355                           
  8356                           ;usb_device.c: 1921: pBDTEntryEP0OutNext->ADR = ((uint16_t)(&SetupPkt));
  8357  001370  EE20 F002          	lfsr	2,2
  8358  001374  503B               	movf	_pBDTEntryEP0OutNext,w,c
  8359  001376  26D9               	addwf	fsr2l,f,c
  8360  001378  503C               	movf	_pBDTEntryEP0OutNext+1,w,c
  8361  00137A  22DA               	addwfc	fsr2h,f,c
  8362  00137C  0E20               	movlw	32
  8363  00137E  6EDE               	movwf	postinc2,c
  8364  001380  0E04               	movlw	4
  8365  001382  6EDD               	movwf	postdec2,c
  8366                           
  8367                           ; BSR set to: 0
  8368                           ;usb_device.c: 1925: pBDTEntryEP0OutNext->STAT.Val = 0x04;
  8369  001384  C03B  FFD9         	movff	_pBDTEntryEP0OutNext,fsr2l
  8370  001388  C03C  FFDA         	movff	_pBDTEntryEP0OutNext+1,fsr2h
  8371  00138C  0E04               	movlw	4
  8372  00138E  6EDF               	movwf	indf2,c
  8373                           
  8374                           ; BSR set to: 0
  8375                           ;usb_device.c: 1926: pBDTEntryEP0OutNext->STAT.Val |= 0x80;
  8376  001390  C03B  FFD9         	movff	_pBDTEntryEP0OutNext,fsr2l
  8377  001394  C03C  FFDA         	movff	_pBDTEntryEP0OutNext+1,fsr2h
  8378  001398  0E00               	movlw	0
  8379  00139A  8EDB               	bsf	plusw2,7,c
  8380                           
  8381                           ; BSR set to: 0
  8382                           ;usb_device.c: 1945: }
  8383                           ;usb_device.c: 1946: outPipes[0].info.bits.busy = 0;
  8384                           
  8385                           ; BSR set to: 0
  8386                           ;usb_device.c: 1934: {
  8387                           ;usb_device.c: 1940: outPipes[0].pFunc();
  8388  00139C  0100               	movlb	0	; () banked
  8389  00139E  9F63               	bcf	(_outPipes+3)& (0+255),7,b	;volatile
  8390                           
  8391                           ;usb_device.c: 1960: if(USBDeferStatusStagePacket == 0)
  8392  0013A0  6644               	tstfsz	_USBDeferStatusStagePacket,c	;volatile
  8393  0013A2  D002               	goto	i2l534
  8394                           
  8395                           ; BSR set to: 0
  8396                           ;usb_device.c: 1961: {
  8397                           ;usb_device.c: 1962: USBCtrlEPAllowStatusStage();
  8398  0013A4  ECE0  F00D         	call	_USBCtrlEPAllowStatusStage	;wreg free
  8399  0013A8                     i2l534:
  8400  0013A8  0012               	return	
  8401  0013AA                     __end_of_USBCtrlTrfRxService:
  8402                           	opt stack 0
  8403                           pclatu	equ	0xFFB
  8404                           pclath	equ	0xFFA
  8405                           tblptru	equ	0xFF8
  8406                           tblptrh	equ	0xFF7
  8407                           tblptrl	equ	0xFF6
  8408                           tablat	equ	0xFF5
  8409                           prodh	equ	0xFF4
  8410                           prodl	equ	0xFF3
  8411                           intcon	equ	0xFF2
  8412                           indf0	equ	0xFEF
  8413                           postinc0	equ	0xFEE
  8414                           fsr0h	equ	0xFEA
  8415                           fsr0l	equ	0xFE9
  8416                           wreg	equ	0xFE8
  8417                           indf1	equ	0xFE7
  8418                           fsr1h	equ	0xFE2
  8419                           fsr1l	equ	0xFE1
  8420                           indf2	equ	0xFDF
  8421                           postinc2	equ	0xFDE
  8422                           postdec2	equ	0xFDD
  8423                           plusw2	equ	0xFDB
  8424                           fsr2h	equ	0xFDA
  8425                           fsr2l	equ	0xFD9
  8426                           status	equ	0xFD8
  8427                           
  8428 ;; *************** function _USBCtrlEPAllowStatusStage *****************
  8429 ;; Defined at:
  8430 ;;		line 1435 in file "../src/usb_device.c"
  8431 ;; Parameters:    Size  Location     Type
  8432 ;;		None
  8433 ;; Auto vars:     Size  Location     Type
  8434 ;;		None
  8435 ;; Return value:  Size  Location     Type
  8436 ;;		None               void
  8437 ;; Registers used:
  8438 ;;		wreg, fsr2l, fsr2h, status,2, status,0
  8439 ;; Tracked objects:
  8440 ;;		On entry : 0/0
  8441 ;;		On exit  : 0/0
  8442 ;;		Unchanged: 0/0
  8443 ;; Data sizes:     COMRAM   BANK0   BANK1   BANK2   BANK3   BANK4   BANK5   BANK6   BANK7
  8444 ;;      Params:         0       0       0       0       0       0       0       0       0
  8445 ;;      Locals:         0       0       0       0       0       0       0       0       0
  8446 ;;      Temps:          0       0       0       0       0       0       0       0       0
  8447 ;;      Totals:         0       0       0       0       0       0       0       0       0
  8448 ;;Total ram usage:        0 bytes
  8449 ;; Hardware stack levels used:    1
  8450 ;; This function calls:
  8451 ;;		Nothing
  8452 ;; This function is called by:
  8453 ;;		_USBDeviceTasks
  8454 ;;		_USBCtrlEPServiceComplete
  8455 ;;		_USBCtrlTrfRxService
  8456 ;; This function uses a non-reentrant model
  8457 ;;
  8458                           
  8459                           	psect	text42
  8460  001BC0                     __ptext42:
  8461                           	opt stack 0
  8462  001BC0                     _USBCtrlEPAllowStatusStage:
  8463                           	opt stack 23
  8464                           
  8465                           ;usb_device.c: 1442: if(USBStatusStageEnabledFlag1 == 0)
  8466                           
  8467                           ;incstack = 0
  8468  001BC0  6645               	tstfsz	_USBStatusStageEnabledFlag1,c	;volatile
  8469  001BC2  D05F               	goto	i2l482
  8470                           
  8471                           ;usb_device.c: 1443: {
  8472                           ;usb_device.c: 1444: USBStatusStageEnabledFlag1 = 1;
  8473  001BC4  0E01               	movlw	1
  8474  001BC6  6E45               	movwf	_USBStatusStageEnabledFlag1,c	;volatile
  8475                           
  8476                           ;usb_device.c: 1445: if(USBStatusStageEnabledFlag2 == 0)
  8477  001BC8  6646               	tstfsz	_USBStatusStageEnabledFlag2,c	;volatile
  8478  001BCA  D05B               	goto	i2l482
  8479                           
  8480                           ;usb_device.c: 1446: {
  8481                           ;usb_device.c: 1447: USBStatusStageEnabledFlag2 = 1;
  8482  001BCC  0E01               	movlw	1
  8483  001BCE  6E46               	movwf	_USBStatusStageEnabledFlag2,c	;volatile
  8484                           
  8485                           ;usb_device.c: 1451: if(controlTransferState == 2)
  8486  001BD0  5049               	movf	_controlTransferState,w,c	;volatile
  8487  001BD2  0A02               	xorlw	2
  8488  001BD4  A4D8               	btfss	status,2,c
  8489  001BD6  D018               	goto	i2l2910
  8490                           
  8491                           ;usb_device.c: 1452: {
  8492                           ;usb_device.c: 1453: pBDTEntryIn[0]->CNT = 0;
  8493  001BD8  0100               	movlb	0	; () banked
  8494  001BDA  EE20 F001          	lfsr	2,1
  8495  001BDE  0100               	movlb	0	; () banked
  8496  001BE0  5168               	movf	_pBDTEntryIn& (0+255),w,b
  8497  001BE2  26D9               	addwf	fsr2l,f,c
  8498  001BE4  0100               	movlb	0	; () banked
  8499  001BE6  5169               	movf	(_pBDTEntryIn+1)& (0+255),w,b
  8500  001BE8  22DA               	addwfc	fsr2h,f,c
  8501  001BEA  0E00               	movlw	0
  8502  001BEC  6EDF               	movwf	indf2,c
  8503                           
  8504                           ; BSR set to: 0
  8505                           ;usb_device.c: 1454: pBDTEntryIn[0]->STAT.Val = 0x40|(0x08 & 0x08);
  8506  001BEE  C068  FFD9         	movff	_pBDTEntryIn,fsr2l
  8507  001BF2  C069  FFDA         	movff	_pBDTEntryIn+1,fsr2h
  8508  001BF6  0E48               	movlw	72
  8509  001BF8  6EDF               	movwf	indf2,c
  8510                           
  8511                           ; BSR set to: 0
  8512                           ;usb_device.c: 1455: pBDTEntryIn[0]->STAT.Val |= 0x80;
  8513  001BFA  C068  FFD9         	movff	_pBDTEntryIn,fsr2l
  8514  001BFE  C069  FFDA         	movff	_pBDTEntryIn+1,fsr2h
  8515  001C02  0E00               	movlw	0
  8516  001C04  8EDB               	bsf	plusw2,7,c
  8517                           
  8518                           ;usb_device.c: 1456: }
  8519  001C06  D03D               	goto	i2l482
  8520  001C08                     i2l2910:
  8521                           
  8522                           ;usb_device.c: 1457: else if(controlTransferState == 1)
  8523  001C08  0449               	decf	_controlTransferState,w,c	;volatile
  8524  001C0A  A4D8               	btfss	status,2,c
  8525  001C0C  D03A               	goto	i2l482
  8526                           
  8527                           ;usb_device.c: 1458: {
  8528                           ;usb_device.c: 1459: BothEP0OutUOWNsSet = 0;
  8529  001C0E  0E00               	movlw	0
  8530  001C10  6E3F               	movwf	_BothEP0OutUOWNsSet,c	;volatile
  8531                           
  8532                           ;usb_device.c: 1464: pBDTEntryEP0OutCurrent->CNT = 8;
  8533  001C12  EE20 F001          	lfsr	2,1
  8534  001C16  5039               	movf	_pBDTEntryEP0OutCurrent,w,c
  8535  001C18  26D9               	addwf	fsr2l,f,c
  8536  001C1A  503A               	movf	_pBDTEntryEP0OutCurrent+1,w,c
  8537  001C1C  22DA               	addwfc	fsr2h,f,c
  8538  001C1E  0E08               	movlw	8
  8539  001C20  6EDF               	movwf	indf2,c
  8540                           
  8541                           ;usb_device.c: 1465: pBDTEntryEP0OutCurrent->ADR = ((uint16_t)(&SetupPkt));
  8542  001C22  EE20 F002          	lfsr	2,2
  8543  001C26  5039               	movf	_pBDTEntryEP0OutCurrent,w,c
  8544  001C28  26D9               	addwf	fsr2l,f,c
  8545  001C2A  503A               	movf	_pBDTEntryEP0OutCurrent+1,w,c
  8546  001C2C  22DA               	addwfc	fsr2h,f,c
  8547  001C2E  0E20               	movlw	32
  8548  001C30  6EDE               	movwf	postinc2,c
  8549  001C32  0E04               	movlw	4
  8550  001C34  6EDD               	movwf	postdec2,c
  8551                           
  8552                           ;usb_device.c: 1466: pBDTEntryEP0OutCurrent->STAT.Val = 0x04;
  8553  001C36  C039  FFD9         	movff	_pBDTEntryEP0OutCurrent,fsr2l
  8554  001C3A  C03A  FFDA         	movff	_pBDTEntryEP0OutCurrent+1,fsr2h
  8555  001C3E  0E04               	movlw	4
  8556  001C40  6EDF               	movwf	indf2,c
  8557                           
  8558                           ;usb_device.c: 1467: pBDTEntryEP0OutCurrent->STAT.Val |= 0x80;
  8559  001C42  C039  FFD9         	movff	_pBDTEntryEP0OutCurrent,fsr2l
  8560  001C46  C03A  FFDA         	movff	_pBDTEntryEP0OutCurrent+1,fsr2h
  8561  001C4A  0E00               	movlw	0
  8562  001C4C  8EDB               	bsf	plusw2,7,c
  8563                           
  8564                           ;usb_device.c: 1468: BothEP0OutUOWNsSet = 1;
  8565  001C4E  0E01               	movlw	1
  8566  001C50  6E3F               	movwf	_BothEP0OutUOWNsSet,c	;volatile
  8567                           
  8568                           ;usb_device.c: 1472: pBDTEntryEP0OutNext->CNT = 8;
  8569  001C52  EE20 F001          	lfsr	2,1
  8570  001C56  503B               	movf	_pBDTEntryEP0OutNext,w,c
  8571  001C58  26D9               	addwf	fsr2l,f,c
  8572  001C5A  503C               	movf	_pBDTEntryEP0OutNext+1,w,c
  8573  001C5C  22DA               	addwfc	fsr2h,f,c
  8574  001C5E  0E08               	movlw	8
  8575  001C60  6EDF               	movwf	indf2,c
  8576                           
  8577                           ;usb_device.c: 1473: pBDTEntryEP0OutNext->ADR = ((uint16_t)(&SetupPkt));
  8578  001C62  EE20 F002          	lfsr	2,2
  8579  001C66  503B               	movf	_pBDTEntryEP0OutNext,w,c
  8580  001C68  26D9               	addwf	fsr2l,f,c
  8581  001C6A  503C               	movf	_pBDTEntryEP0OutNext+1,w,c
  8582  001C6C  22DA               	addwfc	fsr2h,f,c
  8583  001C6E  0E20               	movlw	32
  8584  001C70  6EDE               	movwf	postinc2,c
  8585  001C72  0E04               	movlw	4
  8586  001C74  6EDD               	movwf	postdec2,c
  8587                           
  8588                           ;usb_device.c: 1474: pBDTEntryEP0OutNext->STAT.Val = 0x80;
  8589  001C76  C03B  FFD9         	movff	_pBDTEntryEP0OutNext,fsr2l
  8590  001C7A  C03C  FFDA         	movff	_pBDTEntryEP0OutNext+1,fsr2h
  8591  001C7E  0E80               	movlw	128
  8592  001C80  6EDF               	movwf	indf2,c
  8593  001C82                     i2l482:
  8594  001C82  0012               	return	
  8595  001C84                     __end_of_USBCtrlEPAllowStatusStage:
  8596                           	opt stack 0
  8597                           pclatu	equ	0xFFB
  8598                           pclath	equ	0xFFA
  8599                           tblptru	equ	0xFF8
  8600                           tblptrh	equ	0xFF7
  8601                           tblptrl	equ	0xFF6
  8602                           tablat	equ	0xFF5
  8603                           prodh	equ	0xFF4
  8604                           prodl	equ	0xFF3
  8605                           intcon	equ	0xFF2
  8606                           indf0	equ	0xFEF
  8607                           postinc0	equ	0xFEE
  8608                           fsr0h	equ	0xFEA
  8609                           fsr0l	equ	0xFE9
  8610                           wreg	equ	0xFE8
  8611                           indf1	equ	0xFE7
  8612                           fsr1h	equ	0xFE2
  8613                           fsr1l	equ	0xFE1
  8614                           indf2	equ	0xFDF
  8615                           postinc2	equ	0xFDE
  8616                           postdec2	equ	0xFDD
  8617                           plusw2	equ	0xFDB
  8618                           fsr2h	equ	0xFDA
  8619                           fsr2l	equ	0xFD9
  8620                           status	equ	0xFD8
  8621                           
  8622 ;; *************** function _USBCtrlTrfInHandler *****************
  8623 ;; Defined at:
  8624 ;;		line 2617 in file "../src/usb_device.c"
  8625 ;; Parameters:    Size  Location     Type
  8626 ;;		None
  8627 ;; Auto vars:     Size  Location     Type
  8628 ;;  lastDTS         1    1[COMRAM] unsigned char 
  8629 ;; Return value:  Size  Location     Type
  8630 ;;		None               void
  8631 ;; Registers used:
  8632 ;;		wreg, fsr0l, fsr0h, fsr2l, fsr2h, status,2, status,0, tblptrl, tblptrh, tblptru, cstack
  8633 ;; Tracked objects:
  8634 ;;		On entry : 0/0
  8635 ;;		On exit  : 0/0
  8636 ;;		Unchanged: 0/0
  8637 ;; Data sizes:     COMRAM   BANK0   BANK1   BANK2   BANK3   BANK4   BANK5   BANK6   BANK7
  8638 ;;      Params:         0       0       0       0       0       0       0       0       0
  8639 ;;      Locals:         1       0       0       0       0       0       0       0       0
  8640 ;;      Temps:          0       0       0       0       0       0       0       0       0
  8641 ;;      Totals:         1       0       0       0       0       0       0       0       0
  8642 ;;Total ram usage:        1 bytes
  8643 ;; Hardware stack levels used:    1
  8644 ;; Hardware stack levels required when called:    1
  8645 ;; This function calls:
  8646 ;;		_USBCtrlTrfTxService
  8647 ;; This function is called by:
  8648 ;;		_USBCtrlEPService
  8649 ;; This function uses a non-reentrant model
  8650 ;;
  8651                           
  8652                           	psect	text43
  8653  001C84                     __ptext43:
  8654                           	opt stack 0
  8655  001C84                     _USBCtrlTrfInHandler:
  8656                           	opt stack 24
  8657                           
  8658                           ;usb_device.c: 2619: uint8_t lastDTS;
  8659                           ;usb_device.c: 2621: lastDTS = pBDTEntryIn[0]->STAT.DTS;
  8660                           
  8661                           ;incstack = 0
  8662  001C84  C068  FFD9         	movff	_pBDTEntryIn,fsr2l
  8663  001C88  C069  FFDA         	movff	_pBDTEntryIn+1,fsr2h
  8664  001C8C  0E00               	movlw	0
  8665  001C8E  BCDF               	btfsc	indf2,6,c
  8666  001C90  0E01               	movlw	1
  8667  001C92  6E02               	movwf	USBCtrlTrfInHandler@lastDTS,c
  8668                           
  8669                           ;usb_device.c: 2624: ((uint8_t_VAL*)&pBDTEntryIn[0])->Val ^= 0x0004;
  8670  001C94  0E04               	movlw	4
  8671  001C96  0100               	movlb	0	; () banked
  8672  001C98  1B68               	xorwf	_pBDTEntryIn& (0+255),f,b
  8673                           
  8674                           ; BSR set to: 0
  8675                           ;usb_device.c: 2629: if(USBDeviceState == ADR_PENDING_STATE)
  8676  001C9A  0100               	movlb	0	; () banked
  8677  001C9C  5178               	movf	_USBDeviceState& (0+255),w,b	;volatile
  8678  001C9E  0A08               	xorlw	8
  8679  001CA0  A4D8               	btfss	status,2,c
  8680  001CA2  D00C               	goto	i2l3324
  8681                           
  8682                           ; BSR set to: 0
  8683                           ;usb_device.c: 2630: {
  8684                           ;usb_device.c: 2631: UADDR = (SetupPkt.bDevADR & 0x7F);
  8685  001CA4  0104               	movlb	4	; () banked
  8686  001CA6  5122               	movf	34,w,b	;volatile
  8687  001CA8  0B7F               	andlw	127
  8688  001CAA  6E6E               	movwf	3950,c	;volatile
  8689                           
  8690                           ; BSR set to: 4
  8691                           ;usb_device.c: 2632: if(UADDR != 0u)
  8692  001CAC  506E               	movf	3950,w,c	;volatile
  8693  001CAE  B4D8               	btfsc	status,2,c
  8694  001CB0  D002               	goto	i2l3322
  8695                           
  8696                           ; BSR set to: 4
  8697                           ;usb_device.c: 2633: {
  8698                           ;usb_device.c: 2634: USBDeviceState=ADDRESS_STATE;
  8699  001CB2  0E10               	movlw	16
  8700  001CB4  D001               	goto	L30
  8701  001CB6                     i2l3322:
  8702                           
  8703                           ;usb_device.c: 2636: else
  8704                           ;usb_device.c: 2637: {
  8705                           ;usb_device.c: 2638: USBDeviceState=DEFAULT_STATE;
  8706  001CB6  0E04               	movlw	4
  8707  001CB8                     L30:
  8708  001CB8  0100               	movlb	0	; () banked
  8709  001CBA  6F78               	movwf	_USBDeviceState& (0+255),b	;volatile
  8710  001CBC                     i2l3324:
  8711                           
  8712                           ; BSR set to: 0
  8713                           ;usb_device.c: 2639: }
  8714                           ;usb_device.c: 2640: }
  8715                           ;usb_device.c: 2643: if(controlTransferState == 1)
  8716  001CBC  0449               	decf	_controlTransferState,w,c	;volatile
  8717  001CBE  A4D8               	btfss	status,2,c
  8718  001CC0  D02E               	goto	i2l609
  8719                           
  8720                           ; BSR set to: 0
  8721                           ;usb_device.c: 2644: {
  8722                           ;usb_device.c: 2645: pBDTEntryIn[0]->ADR = ((uint16_t)(CtrlTrfData));
  8723  001CC2  0100               	movlb	0	; () banked
  8724  001CC4  EE20 F002          	lfsr	2,2
  8725  001CC8  0100               	movlb	0	; () banked
  8726  001CCA  5168               	movf	_pBDTEntryIn& (0+255),w,b
  8727  001CCC  26D9               	addwf	fsr2l,f,c
  8728  001CCE  0100               	movlb	0	; () banked
  8729  001CD0  5169               	movf	(_pBDTEntryIn+1)& (0+255),w,b
  8730  001CD2  22DA               	addwfc	fsr2h,f,c
  8731  001CD4  0E28               	movlw	40
  8732  001CD6  6EDE               	movwf	postinc2,c
  8733  001CD8  0E04               	movlw	4
  8734  001CDA  6EDD               	movwf	postdec2,c
  8735                           
  8736                           ; BSR set to: 0
  8737                           ;usb_device.c: 2646: USBCtrlTrfTxService();
  8738  001CDC  EC3A  F00C         	call	_USBCtrlTrfTxService	;wreg free
  8739                           
  8740                           ;usb_device.c: 2652: if(shortPacketStatus == 2)
  8741  001CE0  504B               	movf	_shortPacketStatus,w,c	;volatile
  8742  001CE2  0A02               	xorlw	2
  8743  001CE4  A4D8               	btfss	status,2,c
  8744  001CE6  D006               	goto	i2l610
  8745                           
  8746                           ;usb_device.c: 2653: {
  8747                           ;usb_device.c: 2656: pBDTEntryIn[0]->STAT.Val = 0x04;
  8748  001CE8  C068  FFD9         	movff	_pBDTEntryIn,fsr2l
  8749  001CEC  C069  FFDA         	movff	_pBDTEntryIn+1,fsr2h
  8750  001CF0  0E04               	movlw	4
  8751  001CF2  D00D               	goto	L32
  8752  001CF4                     i2l610:
  8753                           
  8754                           ;usb_device.c: 2659: else
  8755                           ;usb_device.c: 2660: {
  8756                           ;usb_device.c: 2661: if(lastDTS == 0)
  8757  001CF4  6602               	tstfsz	USBCtrlTrfInHandler@lastDTS,c
  8758  001CF6  D006               	goto	i2l3340
  8759                           
  8760                           ;usb_device.c: 2662: {
  8761                           ;usb_device.c: 2663: pBDTEntryIn[0]->STAT.Val = 0x40|(0x08 & 0x08);
  8762  001CF8  C068  FFD9         	movff	_pBDTEntryIn,fsr2l
  8763  001CFC  C069  FFDA         	movff	_pBDTEntryIn+1,fsr2h
  8764  001D00  0E48               	movlw	72
  8765  001D02  D005               	goto	L32
  8766  001D04                     i2l3340:
  8767                           
  8768                           ;usb_device.c: 2666: else
  8769                           ;usb_device.c: 2667: {
  8770                           ;usb_device.c: 2668: pBDTEntryIn[0]->STAT.Val = 0x00|(0x08 & 0x08);
  8771  001D04  C068  FFD9         	movff	_pBDTEntryIn,fsr2l
  8772  001D08  C069  FFDA         	movff	_pBDTEntryIn+1,fsr2h
  8773  001D0C  0E08               	movlw	8
  8774  001D0E                     L32:
  8775  001D0E  6EDF               	movwf	indf2,c
  8776                           
  8777                           ;usb_device.c: 2669: pBDTEntryIn[0]->STAT.Val |= 0x80;
  8778  001D10  C068  FFD9         	movff	_pBDTEntryIn,fsr2l
  8779  001D14  C069  FFDA         	movff	_pBDTEntryIn+1,fsr2h
  8780  001D18  0E00               	movlw	0
  8781  001D1A  8EDB               	bsf	plusw2,7,c
  8782  001D1C  D007               	goto	i2l617
  8783  001D1E                     i2l609:
  8784                           
  8785                           ; BSR set to: 0
  8786                           ;usb_device.c: 2673: else
  8787                           ;usb_device.c: 2674: {
  8788                           ;usb_device.c: 2678: if(outPipes[0].info.bits.busy == 1)
  8789  001D1E  0100               	movlb	0	; () banked
  8790  001D20  AF63               	btfss	(_outPipes+3)& (0+255),7,b	;volatile
  8791  001D22  D002               	goto	i2l3346
  8792                           
  8793                           ; BSR set to: 0
  8794                           ;usb_device.c: 2683: }
  8795                           ;usb_device.c: 2684: outPipes[0].info.bits.busy = 0;
  8796                           
  8797                           ; BSR set to: 0
  8798                           ;usb_device.c: 2681: {
  8799                           ;usb_device.c: 2682: outPipes[0].pFunc();
  8800  001D24  0100               	movlb	0	; () banked
  8801  001D26  9F63               	bcf	(_outPipes+3)& (0+255),7,b	;volatile
  8802  001D28                     i2l3346:
  8803                           
  8804                           ; BSR set to: 0
  8805                           ;usb_device.c: 2685: }
  8806                           ;usb_device.c: 2687: controlTransferState = 0;
  8807  001D28  0E00               	movlw	0
  8808  001D2A  6E49               	movwf	_controlTransferState,c	;volatile
  8809  001D2C                     i2l617:
  8810  001D2C  0012               	return	
  8811  001D2E                     __end_of_USBCtrlTrfInHandler:
  8812                           	opt stack 0
  8813                           pclatu	equ	0xFFB
  8814                           pclath	equ	0xFFA
  8815                           tblptru	equ	0xFF8
  8816                           tblptrh	equ	0xFF7
  8817                           tblptrl	equ	0xFF6
  8818                           tablat	equ	0xFF5
  8819                           prodh	equ	0xFF4
  8820                           prodl	equ	0xFF3
  8821                           intcon	equ	0xFF2
  8822                           indf0	equ	0xFEF
  8823                           postinc0	equ	0xFEE
  8824                           fsr0h	equ	0xFEA
  8825                           fsr0l	equ	0xFE9
  8826                           wreg	equ	0xFE8
  8827                           indf1	equ	0xFE7
  8828                           fsr1h	equ	0xFE2
  8829                           fsr1l	equ	0xFE1
  8830                           indf2	equ	0xFDF
  8831                           postinc2	equ	0xFDE
  8832                           postdec2	equ	0xFDD
  8833                           plusw2	equ	0xFDB
  8834                           fsr2h	equ	0xFDA
  8835                           fsr2l	equ	0xFD9
  8836                           status	equ	0xFD8
  8837                           
  8838 ;; *************** function _USBCtrlTrfTxService *****************
  8839 ;; Defined at:
  8840 ;;		line 1790 in file "../src/usb_device.c"
  8841 ;; Parameters:    Size  Location     Type
  8842 ;;		None
  8843 ;; Auto vars:     Size  Location     Type
  8844 ;;  byteToSend      1    0[COMRAM] unsigned char 
  8845 ;; Return value:  Size  Location     Type
  8846 ;;		None               void
  8847 ;; Registers used:
  8848 ;;		wreg, fsr0l, fsr0h, fsr2l, fsr2h, status,2, status,0, tblptrl, tblptrh, tblptru
  8849 ;; Tracked objects:
  8850 ;;		On entry : 0/0
  8851 ;;		On exit  : 0/0
  8852 ;;		Unchanged: 0/0
  8853 ;; Data sizes:     COMRAM   BANK0   BANK1   BANK2   BANK3   BANK4   BANK5   BANK6   BANK7
  8854 ;;      Params:         0       0       0       0       0       0       0       0       0
  8855 ;;      Locals:         1       0       0       0       0       0       0       0       0
  8856 ;;      Temps:          0       0       0       0       0       0       0       0       0
  8857 ;;      Totals:         1       0       0       0       0       0       0       0       0
  8858 ;;Total ram usage:        1 bytes
  8859 ;; Hardware stack levels used:    1
  8860 ;; This function calls:
  8861 ;;		Nothing
  8862 ;; This function is called by:
  8863 ;;		_USBCtrlEPAllowDataStage
  8864 ;;		_USBCtrlTrfInHandler
  8865 ;; This function uses a non-reentrant model
  8866 ;;
  8867                           
  8868                           	psect	text44
  8869  001874                     __ptext44:
  8870                           	opt stack 0
  8871  001874                     _USBCtrlTrfTxService:
  8872                           	opt stack 22
  8873                           
  8874                           ;usb_device.c: 1792: uint8_t byteToSend;
  8875                           ;usb_device.c: 1796: byteToSend = 8;
  8876                           
  8877                           ;incstack = 0
  8878  001874  0E08               	movlw	8
  8879  001876  6E01               	movwf	USBCtrlTrfTxService@byteToSend,c
  8880                           
  8881                           ;usb_device.c: 1797: if(inPipes[0].wCount.Val < (uint8_t)8)
  8882  001878  0E08               	movlw	8
  8883  00187A  0100               	movlb	0	; () banked
  8884  00187C  5D7D               	subwf	(_inPipes+4)& (0+255),w,b	;volatile
  8885  00187E  0E00               	movlw	0
  8886  001880  0100               	movlb	0	; () banked
  8887  001882  597E               	subwfb	(_inPipes+5)& (0+255),w,b	;volatile
  8888  001884  B0D8               	btfsc	status,0,c
  8889  001886  D00B               	goto	i2l2856
  8890                           
  8891                           ; BSR set to: 0
  8892                           ;usb_device.c: 1798: {
  8893                           ;usb_device.c: 1799: byteToSend = inPipes[0].wCount.Val;
  8894  001888  C07D  F001         	movff	_inPipes+4,USBCtrlTrfTxService@byteToSend	;volatile
  8895                           
  8896                           ;usb_device.c: 1806: if(shortPacketStatus == 0)
  8897  00188C  664B               	tstfsz	_shortPacketStatus,c	;volatile
  8898  00188E  D002               	goto	i2l2852
  8899                           
  8900                           ; BSR set to: 0
  8901                           ;usb_device.c: 1807: {
  8902                           ;usb_device.c: 1808: shortPacketStatus = 1;
  8903  001890  0E01               	movlw	1
  8904  001892  D004               	goto	L33
  8905  001894                     i2l2852:
  8906                           
  8907                           ; BSR set to: 0
  8908                           ;usb_device.c: 1810: else if(shortPacketStatus == 1)
  8909  001894  044B               	decf	_shortPacketStatus,w,c	;volatile
  8910  001896  A4D8               	btfss	status,2,c
  8911  001898  D002               	goto	i2l2856
  8912                           
  8913                           ; BSR set to: 0
  8914                           ;usb_device.c: 1811: {
  8915                           ;usb_device.c: 1812: shortPacketStatus = 2;
  8916  00189A  0E02               	movlw	2
  8917  00189C                     L33:
  8918  00189C  6E4B               	movwf	_shortPacketStatus,c	;volatile
  8919  00189E                     i2l2856:
  8920                           
  8921                           ; BSR set to: 0
  8922                           ;usb_device.c: 1813: }
  8923                           ;usb_device.c: 1814: }
  8924                           ;usb_device.c: 1818: inPipes[0].wCount.Val -= byteToSend;
  8925  00189E  5001               	movf	USBCtrlTrfTxService@byteToSend,w,c
  8926  0018A0  0100               	movlb	0	; () banked
  8927  0018A2  5F7D               	subwf	(_inPipes+4)& (0+255),f,b	;volatile
  8928  0018A4  0E00               	movlw	0
  8929  0018A6  0100               	movlb	0	; () banked
  8930  0018A8  5B7E               	subwfb	(_inPipes+5)& (0+255),f,b	;volatile
  8931                           
  8932                           ; BSR set to: 0
  8933                           ;usb_device.c: 1823: pBDTEntryIn[0]->CNT = byteToSend;
  8934  0018AA  0100               	movlb	0	; () banked
  8935  0018AC  EE20 F001          	lfsr	2,1
  8936  0018B0  0100               	movlb	0	; () banked
  8937  0018B2  5168               	movf	_pBDTEntryIn& (0+255),w,b
  8938  0018B4  26D9               	addwf	fsr2l,f,c
  8939  0018B6  0100               	movlb	0	; () banked
  8940  0018B8  5169               	movf	(_pBDTEntryIn+1)& (0+255),w,b
  8941  0018BA  22DA               	addwfc	fsr2h,f,c
  8942  0018BC  C001  FFDF         	movff	USBCtrlTrfTxService@byteToSend,indf2
  8943                           
  8944                           ; BSR set to: 0
  8945                           ;usb_device.c: 1827: pDst = (volatile uint8_t*)CtrlTrfData;
  8946  0018C0  0104               	movlb	4	; () banked
  8947  0018C2  0E04               	movlw	4	;volatile
  8948  0018C4  6E3E               	movwf	_pDst+1,c
  8949  0018C6  0104               	movlb	4	; () banked
  8950  0018C8  0E28               	movlw	40	;volatile
  8951  0018CA  6E3D               	movwf	_pDst,c
  8952                           
  8953                           ; BSR set to: 4
  8954                           ;usb_device.c: 1828: if(inPipes[0].info.bits.ctrl_trf_mem == 0x00)
  8955  0018CC  0100               	movlb	0	; () banked
  8956  0018CE  A17C               	btfss	(_inPipes+3)& (0+255),0,b	;volatile
  8957  0018D0  D01E               	goto	i2l2874
  8958  0018D2  D03D               	goto	i2l2884
  8959  0018D4                     i2l2866:
  8960                           
  8961                           ; BSR set to: 0
  8962                           ;usb_device.c: 1831: {
  8963                           ;usb_device.c: 1832: *pDst++ = *inPipes[0].pSrc.bRom++;
  8964  0018D4  0100               	movlb	0	; () banked
  8965  0018D6  C079  FFF6         	movff	_inPipes,tblptrl	;volatile
  8966  0018DA  0100               	movlb	0	; () banked
  8967  0018DC  C07A  FFF7         	movff	_inPipes+1,tblptrh	;volatile
  8968  0018E0  6AF8               	clrf	tblptru,c
  8969  0018E2  C03D  FFD9         	movff	_pDst,fsr2l
  8970  0018E6  C03E  FFDA         	movff	_pDst+1,fsr2h
  8971  0018EA  0E07               	movlw	(high __ramtop+-1)
  8972  0018EC  64F7               	cpfsgt	tblptrh,c
  8973  0018EE  D003               	bra	i2u180_47
  8974  0018F0  0008               	tblrd		*
  8975  0018F2  50F5               	movf	tablat,w,c
  8976  0018F4  D005               	bra	i2u180_40
  8977  0018F6                     i2u180_47:
  8978  0018F6  CFF6 FFE9          	movff	tblptrl,fsr0l
  8979  0018FA  CFF7 FFEA          	movff	tblptrh,fsr0h
  8980  0018FE  50EF               	movf	indf0,w,c
  8981  001900                     i2u180_40:
  8982  001900  6EDF               	movwf	indf2,c
  8983  001902  0100               	movlb	0	; () banked
  8984  001904  4B79               	infsnz	_inPipes& (0+255),f,b	;volatile
  8985  001906  2B7A               	incf	(_inPipes+1)& (0+255),f,b	;volatile
  8986                           
  8987                           ; BSR set to: 0
  8988  001908  4A3D               	infsnz	_pDst,f,c
  8989  00190A  2A3E               	incf	_pDst+1,f,c
  8990                           
  8991                           ; BSR set to: 0
  8992                           ;usb_device.c: 1833: byteToSend--;
  8993  00190C  0601               	decf	USBCtrlTrfTxService@byteToSend,f,c
  8994  00190E                     i2l2874:
  8995                           
  8996                           ; BSR set to: 0
  8997  00190E  6601               	tstfsz	USBCtrlTrfTxService@byteToSend,c
  8998  001910  D7E1               	goto	i2l2866
  8999  001912  D01F               	goto	i2l521
  9000  001914                     i2l2876:
  9001                           
  9002                           ; BSR set to: 0
  9003                           ;usb_device.c: 1839: {
  9004                           ;usb_device.c: 1840: *pDst++ = *inPipes[0].pSrc.bRam++;
  9005  001914  0100               	movlb	0	; () banked
  9006  001916  C079  FFF6         	movff	_inPipes,tblptrl	;volatile
  9007  00191A  0100               	movlb	0	; () banked
  9008  00191C  C07A  FFF7         	movff	_inPipes+1,tblptrh	;volatile
  9009  001920  6AF8               	clrf	tblptru,c
  9010  001922  C03D  FFD9         	movff	_pDst,fsr2l
  9011  001926  C03E  FFDA         	movff	_pDst+1,fsr2h
  9012  00192A  0E07               	movlw	(high __ramtop+-1)
  9013  00192C  64F7               	cpfsgt	tblptrh,c
  9014  00192E  D003               	bra	i2u182_47
  9015  001930  0008               	tblrd		*
  9016  001932  50F5               	movf	tablat,w,c
  9017  001934  D005               	bra	i2u182_40
  9018  001936                     i2u182_47:
  9019  001936  CFF6 FFE9          	movff	tblptrl,fsr0l
  9020  00193A  CFF7 FFEA          	movff	tblptrh,fsr0h
  9021  00193E  50EF               	movf	indf0,w,c
  9022  001940                     i2u182_40:
  9023  001940  6EDF               	movwf	indf2,c
  9024  001942  0100               	movlb	0	; () banked
  9025  001944  4B79               	infsnz	_inPipes& (0+255),f,b	;volatile
  9026  001946  2B7A               	incf	(_inPipes+1)& (0+255),f,b	;volatile
  9027                           
  9028                           ; BSR set to: 0
  9029  001948  4A3D               	infsnz	_pDst,f,c
  9030  00194A  2A3E               	incf	_pDst+1,f,c
  9031                           
  9032                           ; BSR set to: 0
  9033                           ;usb_device.c: 1841: byteToSend--;
  9034  00194C  0601               	decf	USBCtrlTrfTxService@byteToSend,f,c
  9035  00194E                     i2l2884:
  9036                           
  9037                           ; BSR set to: 0
  9038  00194E  6601               	tstfsz	USBCtrlTrfTxService@byteToSend,c
  9039  001950  D7E1               	goto	i2l2876
  9040  001952                     i2l521:
  9041                           
  9042                           ; BSR set to: 0
  9043  001952  0012               	return	
  9044  001954                     __end_of_USBCtrlTrfTxService:
  9045                           	opt stack 0
  9046                           pclatu	equ	0xFFB
  9047                           pclath	equ	0xFFA
  9048                           tblptru	equ	0xFF8
  9049                           tblptrh	equ	0xFF7
  9050                           tblptrl	equ	0xFF6
  9051                           tablat	equ	0xFF5
  9052                           prodh	equ	0xFF4
  9053                           prodl	equ	0xFF3
  9054                           intcon	equ	0xFF2
  9055                           indf0	equ	0xFEF
  9056                           postinc0	equ	0xFEE
  9057                           fsr0h	equ	0xFEA
  9058                           fsr0l	equ	0xFE9
  9059                           wreg	equ	0xFE8
  9060                           indf1	equ	0xFE7
  9061                           fsr1h	equ	0xFE2
  9062                           fsr1l	equ	0xFE1
  9063                           indf2	equ	0xFDF
  9064                           postinc2	equ	0xFDE
  9065                           postdec2	equ	0xFDD
  9066                           plusw2	equ	0xFDB
  9067                           fsr2h	equ	0xFDA
  9068                           fsr2l	equ	0xFD9
  9069                           status	equ	0xFD8
  9070                           pclatu	equ	0xFFB
  9071                           pclath	equ	0xFFA
  9072                           tblptru	equ	0xFF8
  9073                           tblptrh	equ	0xFF7
  9074                           tblptrl	equ	0xFF6
  9075                           tablat	equ	0xFF5
  9076                           prodh	equ	0xFF4
  9077                           prodl	equ	0xFF3
  9078                           intcon	equ	0xFF2
  9079                           indf0	equ	0xFEF
  9080                           postinc0	equ	0xFEE
  9081                           fsr0h	equ	0xFEA
  9082                           fsr0l	equ	0xFE9
  9083                           wreg	equ	0xFE8
  9084                           indf1	equ	0xFE7
  9085                           fsr1h	equ	0xFE2
  9086                           fsr1l	equ	0xFE1
  9087                           indf2	equ	0xFDF
  9088                           postinc2	equ	0xFDE
  9089                           postdec2	equ	0xFDD
  9090                           plusw2	equ	0xFDB
  9091                           fsr2h	equ	0xFDA
  9092                           fsr2l	equ	0xFD9
  9093                           status	equ	0xFD8
  9094                           
  9095                           	psect	rparam
  9096  0000                     pclatu	equ	0xFFB
  9097                           pclath	equ	0xFFA
  9098                           tblptru	equ	0xFF8
  9099                           tblptrh	equ	0xFF7
  9100                           tblptrl	equ	0xFF6
  9101                           tablat	equ	0xFF5
  9102                           prodh	equ	0xFF4
  9103                           prodl	equ	0xFF3
  9104                           intcon	equ	0xFF2
  9105                           indf0	equ	0xFEF
  9106                           postinc0	equ	0xFEE
  9107                           fsr0h	equ	0xFEA
  9108                           fsr0l	equ	0xFE9
  9109                           wreg	equ	0xFE8
  9110                           indf1	equ	0xFE7
  9111                           fsr1h	equ	0xFE2
  9112                           fsr1l	equ	0xFE1
  9113                           indf2	equ	0xFDF
  9114                           postinc2	equ	0xFDE
  9115                           postdec2	equ	0xFDD
  9116                           plusw2	equ	0xFDB
  9117                           fsr2h	equ	0xFDA
  9118                           fsr2l	equ	0xFD9
  9119                           status	equ	0xFD8


Data Sizes:
    Strings     0
    Constant    198
    Data        0
    BSS         61
    Persistent  0
    Stack       0

Auto Spaces:
    Space          Size  Autos    Used
    COMRAM           95     50      80
    BANK0           160     18      49
    BANK1           256      0       0
    BANK2           256      0       0
    BANK3           256      0       0
    BANK4           208      0       0
    BANK5           128      0       0
    BANK6           256      0       0
    BANK7           256      0       0

Pointer List with Targets:

    USER_USB_CALLBACK_EVENT_HANDLER@pdata	PTR void  size(2) Largest target is 32
		 -> USTATcopy(COMRAM[1]), USBActiveConfiguration(COMRAM[1]), BDT(BIGRAMll[32]), NULL(NULL[0]), 

    memset@p1	PTR void  size(2) Largest target is 32
		 -> USBAlternateInterface(COMRAM[1]), BDT(BIGRAMll[32]), UEP1(ABS[1]), 

    memset@p	PTR unsigned char  size(2) Largest target is 32
		 -> USBAlternateInterface(COMRAM[1]), BDT(BIGRAMll[32]), UEP1(ABS[1]), 

    USBStdFeatureReqHandler@pUEP	PTR unsigned char  size(2) Largest target is 1
		 -> UEP0(ABS[1]), 

    USBStdFeatureReqHandler@p	PTR struct __BDT size(2) Largest target is 32
		 -> BDT(BIGRAMll[32]), NULL(NULL[0]), 

    USBStdGetStatusHandler@p	PTR struct __BDT size(2) Largest target is 32
		 -> BDT(BIGRAMll[32]), NULL(NULL[0]), 

    pDst	PTR volatile unsigned char  size(2) Largest target is 8
		 -> CtrlTrfData(BIGRAMlh[8]), NULL(NULL[0]), 

    USBConfigureEndpoint@handle	PTR volatile struct __BDT size(2) Largest target is 32
		 -> BDT(BIGRAMll[32]), 

    pBDTEntryEP0OutCurrent	PTR volatile struct __BDT size(2) Largest target is 32
		 -> BDT(BIGRAMll[32]), NULL(NULL[0]), 

    pBDTEntryEP0OutNext	PTR volatile struct __BDT size(2) Largest target is 32
		 -> BDT(BIGRAMll[32]), NULL(NULL[0]), 

    USBTransferOnePacket@data	PTR unsigned char  size(2) Largest target is 64
		 -> ToSendDataBuffer(BIGRAMh[64]), ReceivedDataBuffer(BIGRAMll[64]), 

    USBTransferOnePacket@handle	PTR volatile struct __BDT size(2) Largest target is 32
		 -> BDT(BIGRAMll[32]), NULL(NULL[0]), 

    USBEnableEndpoint@p	PTR unsigned char  size(2) Largest target is 1
		 -> UEP0(ABS[1]), 

    pBDTEntryOut	PTR volatile struct __BDT[2] size(2) Largest target is 32
		 -> BDT(BIGRAMll[32]), NULL(NULL[0]), 

    pBDTEntryIn	PTR volatile struct __BDT[2] size(2) Largest target is 32
		 -> BDT(BIGRAMll[32]), NULL(NULL[0]), 

    S998$pFunc	PTR FTN()void  size(2) Largest target is 0

    outPipes.pFunc	PTR FTN()void  size(2) Largest target is 0

    S988$wRam	PTR unsigned int  size(2) Largest target is 0

    outPipes.pDst.wRam	PTR unsigned int  size(2) Largest target is 0

    S988$bRam	PTR unsigned char  size(2) Largest target is 0

    outPipes.pDst.bRam	PTR unsigned char  size(2) Largest target is 0

    S964$wRom	PTR const unsigned int  size(2) Largest target is 0

    inPipes.pSrc.wRom	PTR const unsigned int  size(2) Largest target is 0

    S964$wRam	PTR unsigned int  size(2) Largest target is 0

    inPipes.pSrc.wRam	PTR unsigned int  size(2) Largest target is 0

    S964$bRom	PTR const unsigned char  size(2) Largest target is 0

    inPipes.pSrc.bRom	PTR const unsigned char  size(2) Largest target is 0

    S964$bRam	PTR unsigned char  size(2) Largest target is 0

    inPipes.pSrc.bRam	PTR unsigned char  size(2) Largest target is 0

    sp__memset	PTR void  size(2) Largest target is 32
		 -> USBAlternateInterface(COMRAM[1]), BDT(BIGRAMll[32]), UEP1(ABS[1]), 

    USB_SD_Ptr	const PTR const unsigned char [3] size(2) Largest target is 52
		 -> sd002(CODE[46]), sd001(CODE[52]), sd000(CODE[4]), 

    USB_CD_Ptr	const PTR const unsigned char [1] size(2) Largest target is 41
		 -> configDescriptor1(CODE[41]), 

    sp__USBTransferOnePacket	PTR void  size(2) Largest target is 32
		 -> BDT(BIGRAMll[32]), NULL(NULL[0]), 

    USBOutHandle	PTR volatile void  size(2) Largest target is 32
		 -> BDT(BIGRAMll[32]), NULL(NULL[0]), 

    USBInHandle	PTR volatile void  size(2) Largest target is 32
		 -> BDT(BIGRAMll[32]), NULL(NULL[0]), 


Critical Paths under _main in COMRAM

    None.

Critical Paths under _SYS_InterruptHigh in COMRAM

    _SYS_InterruptHigh->_USBDeviceTasks
    _USBDeviceTasks->_USBCtrlEPService
    i2_USBDeviceInit->i2_memset
    _USBWakeFromSuspend->_USER_USB_CALLBACK_EVENT_HANDLER
    _USBSuspend->_USER_USB_CALLBACK_EVENT_HANDLER
    _USBCtrlTrfSetupHandler->_USBCheckStdRequest
    _USBCtrlEPAllowDataStage->_USBCtrlTrfTxService
    _USBCheckStdRequest->_USBStdFeatureReqHandler
    _USBStdSetCfgHandler->_USER_USB_CALLBACK_EVENT_HANDLER
    _USBStdFeatureReqHandler->_USER_USB_CALLBACK_EVENT_HANDLER
    _APP_LEDUpdateUSBStatus->_LED_Off
    _APP_LEDUpdateUSBStatus->_LED_On
    _APP_DeviceCustomHIDInitialize->_USBEnableEndpoint
    _USBEnableEndpoint->_USBConfigureEndpoint
    _USBCtrlTrfOutHandler->_USBCtrlTrfRxService
    _USBCtrlTrfInHandler->_USBCtrlTrfTxService

Critical Paths under _main in BANK0

    _main->_APP_DeviceCustomHIDTasks
    _USBDeviceInit->_memset
    _SYSTEM_Initialize->_ADC_Enable
    _SYSTEM_Initialize->_ADC_SetConfiguration
    _SYSTEM_Initialize->_BUTTON_Enable
    _SYSTEM_Initialize->_LED_Enable
    _APP_DeviceCustomHIDTasks->_USBTransferOnePacket

Critical Paths under _SYS_InterruptHigh in BANK0

    None.

Critical Paths under _main in BANK1

    None.

Critical Paths under _SYS_InterruptHigh in BANK1

    None.

Critical Paths under _main in BANK2

    None.

Critical Paths under _SYS_InterruptHigh in BANK2

    None.

Critical Paths under _main in BANK3

    None.

Critical Paths under _SYS_InterruptHigh in BANK3

    None.

Critical Paths under _main in BANK4

    None.

Critical Paths under _SYS_InterruptHigh in BANK4

    None.

Critical Paths under _main in BANK5

    None.

Critical Paths under _SYS_InterruptHigh in BANK5

    None.

Critical Paths under _main in BANK6

    None.

Critical Paths under _SYS_InterruptHigh in BANK6

    None.

Critical Paths under _main in BANK7

    None.

Critical Paths under _SYS_InterruptHigh in BANK7

    None.

Call Graph Tables:

 ---------------------------------------------------------------------------------
 (Depth) Function   	        Calls       Base Space   Used Autos Params    Refs
 ---------------------------------------------------------------------------------
 (0) _main                                                 0     0      0    2794
           _APP_DeviceCustomHIDTasks
                  _SYSTEM_Initialize
                    _USBDeviceAttach
                      _USBDeviceInit
 ---------------------------------------------------------------------------------
 (1) _USBDeviceInit                                        1     1      0    1132
                                              8 BANK0      1     1      0
                             _memset
 ---------------------------------------------------------------------------------
 (2) _memset                                               8     2      6     930
                                              0 BANK0      8     2      6
 ---------------------------------------------------------------------------------
 (1) _USBDeviceAttach                                      0     0      0       0
 ---------------------------------------------------------------------------------
 (1) _SYSTEM_Initialize                                    1     1      0     110
                                              1 BANK0      1     1      0
                         _ADC_Enable
               _ADC_SetConfiguration
                      _BUTTON_Enable
                         _LED_Enable
 ---------------------------------------------------------------------------------
 (2) _LED_Enable                                           1     1      0      22
                                              0 BANK0      1     1      0
 ---------------------------------------------------------------------------------
 (2) _BUTTON_Enable                                        1     1      0      22
                                              0 BANK0      1     1      0
 ---------------------------------------------------------------------------------
 (2) _ADC_SetConfiguration                                 1     1      0      22
                                              0 BANK0      1     1      0
 ---------------------------------------------------------------------------------
 (2) _ADC_Enable                                           1     1      0      22
                                              0 BANK0      1     1      0
 ---------------------------------------------------------------------------------
 (1) _APP_DeviceCustomHIDTasks                            11    11      0    1552
                                              7 BANK0     11    11      0
                      _ADC_Read10bit
                   _BUTTON_IsPressed
                         _LED_Toggle
               _USBTransferOnePacket
 ---------------------------------------------------------------------------------
 (2) _USBTransferOnePacket                                 7     3      4    1322
                                              0 BANK0      7     3      4
 ---------------------------------------------------------------------------------
 (2) _LED_Toggle                                           1     1      0      22
                                              0 BANK0      1     1      0
 ---------------------------------------------------------------------------------
 (2) _BUTTON_IsPressed                                     1     1      0      22
                                              0 BANK0      1     1      0
 ---------------------------------------------------------------------------------
 (2) _ADC_Read10bit                                        6     4      2      69
                                              0 BANK0      6     4      2
 ---------------------------------------------------------------------------------
 Estimated maximum stack depth 2
 ---------------------------------------------------------------------------------
 (Depth) Function   	        Calls       Base Space   Used Autos Params    Refs
 ---------------------------------------------------------------------------------
 (3) _SYS_InterruptHigh                                   14    14      0   28502
                                             36 COMRAM    14    14      0
                     _USBDeviceTasks
 ---------------------------------------------------------------------------------
 (4) _USBDeviceTasks                                       1     1      0   28502
                                             35 COMRAM     1     1      0
          _USBCtrlEPAllowStatusStage
                   _USBCtrlEPService
      _USBIncrement1msInternalTimers
                    _USBStallHandler
                         _USBSuspend
                 _USBWakeFromSuspend
    _USER_USB_CALLBACK_EVENT_HANDLER
                    i2_USBDeviceInit
 ---------------------------------------------------------------------------------
 (5) i2_USBDeviceInit                                      1     1      0     610
                                              8 COMRAM     1     1      0
                           i2_memset
 ---------------------------------------------------------------------------------
 (5) _USBWakeFromSuspend                                   0     0      0    3790
    _USER_USB_CALLBACK_EVENT_HANDLER
 ---------------------------------------------------------------------------------
 (5) _USBSuspend                                           0     0      0    3790
    _USER_USB_CALLBACK_EVENT_HANDLER
 ---------------------------------------------------------------------------------
 (5) _USBStallHandler                                      0     0      0       0
 ---------------------------------------------------------------------------------
 (5) _USBIncrement1msInternalTimers                        0     0      0       0
 ---------------------------------------------------------------------------------
 (5) _USBCtrlEPService                                     3     3      0   16476
                                             32 COMRAM     3     3      0
                _USBCtrlTrfInHandler
               _USBCtrlTrfOutHandler
             _USBCtrlTrfSetupHandler
 ---------------------------------------------------------------------------------
 (6) _USBCtrlTrfSetupHandler                               0     0      0   16179
                 _USBCheckStdRequest
           _USBCtrlEPServiceComplete
    _USER_USB_CALLBACK_EVENT_HANDLER
 ---------------------------------------------------------------------------------
 (7) _USBCtrlEPServiceComplete                             0     0      0      92
            _USBCtrlEPAllowDataStage
          _USBCtrlEPAllowStatusStage
 ---------------------------------------------------------------------------------
 (8) _USBCtrlEPAllowDataStage                              0     0      0      92
                _USBCtrlTrfTxService
 ---------------------------------------------------------------------------------
 (7) _USBCheckStdRequest                                   2     2      0   12297
                                             30 COMRAM     2     2      0
            _USBStdFeatureReqHandler
                _USBStdGetDscHandler
             _USBStdGetStatusHandler
                _USBStdSetCfgHandler
    _USER_USB_CALLBACK_EVENT_HANDLER
 ---------------------------------------------------------------------------------
 (8) _USBStdSetCfgHandler                                  1     1      0    4288
                                             22 COMRAM     1     1      0
    _USER_USB_CALLBACK_EVENT_HANDLER
                           i2_memset
 ---------------------------------------------------------------------------------
 (6) i2_memset                                             8     2      6     408
                                              0 COMRAM     8     2      6
 ---------------------------------------------------------------------------------
 (8) _USBStdGetStatusHandler                               3     3      0      46
                                              0 COMRAM     3     3      0
 ---------------------------------------------------------------------------------
 (8) _USBStdGetDscHandler                                  2     2      0       0
                                              0 COMRAM     2     2      0
 ---------------------------------------------------------------------------------
 (8) _USBStdFeatureReqHandler                              8     8      0    4173
                                             22 COMRAM     8     8      0
    _USER_USB_CALLBACK_EVENT_HANDLER
 ---------------------------------------------------------------------------------
 (5) _USER_USB_CALLBACK_EVENT_HANDLER                      8     2      6    3790
                                             14 COMRAM     8     2      6
      _APP_DeviceCustomHIDInitialize
             _APP_LEDUpdateUSBStatus
                 _USBCheckHIDRequest
 ---------------------------------------------------------------------------------
 (6) _USBCheckHIDRequest                                   1     1      0       0
                                              0 COMRAM     1     1      0
 ---------------------------------------------------------------------------------
 (6) _APP_LEDUpdateUSBStatus                               0     0      0      44
                            _LED_Off
                             _LED_On
 ---------------------------------------------------------------------------------
 (7) _LED_On                                               1     1      0      22
                                              0 COMRAM     1     1      0
 ---------------------------------------------------------------------------------
 (7) _LED_Off                                              1     1      0      22
                                              0 COMRAM     1     1      0
 ---------------------------------------------------------------------------------
 (6) _APP_DeviceCustomHIDInitialize                        0     0      0    1054
                  _USBEnableEndpoint
             i2_USBTransferOnePacket
 ---------------------------------------------------------------------------------
 (7) i2_USBTransferOnePacket                               7     3      4     410
                                              0 COMRAM     7     3      4
 ---------------------------------------------------------------------------------
 (7) _USBEnableEndpoint                                    6     5      1     644
                                              8 COMRAM     6     5      1
               _USBConfigureEndpoint
 ---------------------------------------------------------------------------------
 (8) _USBConfigureEndpoint                                 8     7      1     400
                                              0 COMRAM     8     7      1
 ---------------------------------------------------------------------------------
 (6) _USBCtrlTrfOutHandler                                 0     0      0     114
                _USBCtrlTrfRxService
 ---------------------------------------------------------------------------------
 (7) _USBCtrlTrfRxService                                  2     2      0     114
                                              0 COMRAM     2     2      0
          _USBCtrlEPAllowStatusStage
 ---------------------------------------------------------------------------------
 (8) _USBCtrlEPAllowStatusStage                            0     0      0       0
 ---------------------------------------------------------------------------------
 (6) _USBCtrlTrfInHandler                                  1     1      0     115
                                              1 COMRAM     1     1      0
                _USBCtrlTrfTxService
 ---------------------------------------------------------------------------------
 (9) _USBCtrlTrfTxService                                  1     1      0      92
                                              0 COMRAM     1     1      0
 ---------------------------------------------------------------------------------
 Estimated maximum stack depth 9
 ---------------------------------------------------------------------------------

 Call Graph Graphs:

 _main (ROOT)
   _APP_DeviceCustomHIDTasks
     _ADC_Read10bit
     _BUTTON_IsPressed
     _LED_Toggle
     _USBTransferOnePacket
   _SYSTEM_Initialize
     _ADC_Enable
     _ADC_SetConfiguration
     _BUTTON_Enable
     _LED_Enable
   _USBDeviceAttach
   _USBDeviceInit
     _memset

 _SYS_InterruptHigh (ROOT)
   _USBDeviceTasks
     _USBCtrlEPAllowStatusStage
     _USBCtrlEPService
       _USBCtrlTrfInHandler
         _USBCtrlTrfTxService
       _USBCtrlTrfOutHandler
         _USBCtrlTrfRxService
           _USBCtrlEPAllowStatusStage
       _USBCtrlTrfSetupHandler
         _USBCheckStdRequest
           _USBStdFeatureReqHandler
             _USER_USB_CALLBACK_EVENT_HANDLER
               _APP_DeviceCustomHIDInitialize
                 _USBEnableEndpoint
                   _USBConfigureEndpoint
                 i2_USBTransferOnePacket
               _APP_LEDUpdateUSBStatus
                 _LED_Off
                 _LED_On
               _USBCheckHIDRequest
           _USBStdGetDscHandler
           _USBStdGetStatusHandler
           _USBStdSetCfgHandler
             _USER_USB_CALLBACK_EVENT_HANDLER
               _APP_DeviceCustomHIDInitialize
                 _USBEnableEndpoint
                   _USBConfigureEndpoint
                 i2_USBTransferOnePacket
               _APP_LEDUpdateUSBStatus
                 _LED_Off
                 _LED_On
               _USBCheckHIDRequest
             i2_memset
           _USER_USB_CALLBACK_EVENT_HANDLER
             _APP_DeviceCustomHIDInitialize
               _USBEnableEndpoint
                 _USBConfigureEndpoint
               i2_USBTransferOnePacket
             _APP_LEDUpdateUSBStatus
               _LED_Off
               _LED_On
             _USBCheckHIDRequest
         _USBCtrlEPServiceComplete
           _USBCtrlEPAllowDataStage
             _USBCtrlTrfTxService
           _USBCtrlEPAllowStatusStage
         _USER_USB_CALLBACK_EVENT_HANDLER
           _APP_DeviceCustomHIDInitialize
             _USBEnableEndpoint
               _USBConfigureEndpoint
             i2_USBTransferOnePacket
           _APP_LEDUpdateUSBStatus
             _LED_Off
             _LED_On
           _USBCheckHIDRequest
     _USBIncrement1msInternalTimers
     _USBStallHandler
     _USBSuspend
       _USER_USB_CALLBACK_EVENT_HANDLER
         _APP_DeviceCustomHIDInitialize
           _USBEnableEndpoint
             _USBConfigureEndpoint
           i2_USBTransferOnePacket
         _APP_LEDUpdateUSBStatus
           _LED_Off
           _LED_On
         _USBCheckHIDRequest
     _USBWakeFromSuspend
       _USER_USB_CALLBACK_EVENT_HANDLER
         _APP_DeviceCustomHIDInitialize
           _USBEnableEndpoint
             _USBConfigureEndpoint
           i2_USBTransferOnePacket
         _APP_LEDUpdateUSBStatus
           _LED_Off
           _LED_On
         _USBCheckHIDRequest
     _USER_USB_CALLBACK_EVENT_HANDLER
       _APP_DeviceCustomHIDInitialize
         _USBEnableEndpoint
           _USBConfigureEndpoint
         i2_USBTransferOnePacket
       _APP_LEDUpdateUSBStatus
         _LED_Off
         _LED_On
       _USBCheckHIDRequest
     i2_USBDeviceInit
       i2_memset

 Address spaces:
Name               Size   Autos  Total    Cost      Usage
BIGRAMll           3FF      0       0      23        0.0%
BIGRAMh            280      0       0      21        0.0%
EEDATA             100      0       0       0        0.0%
BITBANK7           100      0       0      19        0.0%
BANK7              100      0       0      20        0.0%
BITBANK6           100      0       0      17        0.0%
BANK6              100      0       0      18        0.0%
BITBANK3           100      0       0      10        0.0%
BANK3              100      0       0      11        0.0%
BITBANK2           100      0       0       8        0.0%
BANK2              100      0       0       9        0.0%
BITBANK1           100      0       0       6        0.0%
BANK1              100      0       0       7        0.0%
BIGRAMlh            D0      0       0      22        0.0%
BITBANK4            D0      0       0      12        0.0%
BANK4               D0      0       0      13        0.0%
BITBANK0            A0      0       0       4        0.0%
BANK0               A0     12      31       5       30.6%
BITBANK5            80      0       0      14        0.0%
BANK5               80      0       0      15        0.0%
BITCOMRAM           5F      0       0       0        0.0%
COMRAM              5F     32      50       1       84.2%
BITSFR               0      0       0      40        0.0%
SFR                  0      0       0      40        0.0%
STACK                0      0       0       2        0.0%
NULL                 0      0       0       0        0.0%
ABS                  0      0      81      16        0.0%
DATA                 0      0      81       3        0.0%
CODE                 0      0       0       0        0.0%


Microchip Technology PIC18 Macro Assembler V1.33 build 59893 
Symbol Table                                                                                   Tue Jun 16 22:17:21 2015

                              _USB_SD_Ptr 0801                                        l18 22B2  
                                      l67 0D44                               ?_LED_Enable 0001  
                             __CFG_BOR$ON 000000                             _USBDeviceInit 0D46  
                             __CFG_BORV$3 000000                        _USBCheckHIDRequest 13AA  
                     __size_of_ADC_Enable 0016                              __CFG_CP0$OFF 000000  
                            __CFG_CP1$OFF 000000      USER_USB_CALLBACK_EVENT_HANDLER@event 000F  
    USER_USB_CALLBACK_EVENT_HANDLER@pdata 0011                                       l215 2410  
                                     l208 23B0                               ?_LED_Toggle 0001  
                                     l217 2414                                       l250 21DE  
                                     l251 21E2                                       l219 242E  
                                     l253 2208               __end_of_USBStdGetDscHandler 116A  
                                     l270 21A4                                       l247 21D6  
                                     l271 21A8                                       l184 2060  
                                     l192 24B0                                       l185 20B4  
                                     l249 21DA                                       l193 24BE  
                                     l273 21CE                                       l186 208C  
                                     l267 219C                                       l452 15A0  
                                     l269 21A0                                       l199 248E  
                                     l471 2346                                       l472 2344  
                                     l474 2350                                       _BDT 000400  
                            __CFG_CPB$OFF 000000                                       _UIE 000F69  
                                     _UIR 000F68                    _APP_LEDUpdateUSBStatus 1EFC  
                              _USBSuspend 23B2                      USBStdSetCfgHandler@i 0017  
                                     prod 000FF3                                       wreg 000FE8  
                          _USBDeviceTasks 116A                       ?_USBCheckHIDRequest 0001  
                          _USBDeviceState 0078                             _BUTTON_Enable 240A  
                   ??_USBCtrlTrfRxService 0001                  __size_ofi2_USBDeviceInit 0162  
                USBEnableEndpoint@options 0009                              __CFG_LVP$OFF 000000  
                         __end_of_LED_Off 2320                              __CFG_WDT$OFF 000000  
                                    l3402 157A                                      l3420 2392  
                                    l3412 21E6                USBConfigureEndpoint@handle 0007  
                                    l3430 2398                                      l3440 206A  
                                    l3432 23AE                                      l3416 238A  
                                    l3352 21AC                                      l3620 2282  
                                    l3460 2266                                      l3390 1504  
                                    l3382 14CA                                      l3358 2418  
                                    l3376 24B4                                      l3456 2252  
                                    l3628 22A2                                      l3804 0D90  
                                    l3750 0C0E                                      l3742 0BCA  
                                    l3744 0BD2                                      l3736 0BB2  
                                    l3832 0DFE                                      l3816 0DC4  
                                    l3762 0C58                                      l3738 0BBE  
                                    l3748 0C02                                      l3766 0C88  
                                    l3758 0C2E                                      l3782 0D00  
                                    l3768 0C94                                      l3784 0D16  
                                    l3880 2460                                      u3000 0C76  
                                    u3008 0C7A                                      u2930 0BA0  
                                    u2960 0BF0                                      u2938 0BA4  
                                    u2968 0BF4                     ??_USBCtrlTrfTxService 0001  
                                    i2l81 1F7A                                      _UCFG 000F6F  
                                    _UEP0 000F70                                      _UEP1 000F71  
                                    _UEIE 000F6B                                      _UEIR 000F6A  
                                    _UCON 000F6D    USBStdFeatureReqHandler@current_ep_data 001C  
                                    _pDst 003D                                      _main 2452  
                ??i2_USBTransferOnePacket 0005                                      fsr0h 000FEA  
                                    fsr1h 000FE2                                      indf0 000FEF  
                                    fsr0l 000FE9                                      fsr2h 000FDA  
                                    indf1 000FE7                                      fsr1l 000FE1  
                                    indf2 000FDF                                      fsr2l 000FD9  
                         _USBDeviceAttach 2320                                      pclat 000FFA  
                                    prodh 000FF4                                      prodl 000FF3  
                                    start 0018                             __CFG_IESO$OFF 000000  
                    ??_USBCheckHIDRequest 0001                __end_of_USBCheckStdRequest 1874  
                  ??_USBCtrlTrfOutHandler 0003                             __CFG_MCLRE$ON 000000  
               ??_USBStdFeatureReqHandler 0017                              _USBOutHandle 0072  
                ??_USBStdGetStatusHandler 0001                            ?_USBDeviceInit 0001  
                           __CFG_PLLDIV$5 000000                                     ?_main 0001  
       __size_of_USBCtrlEPServiceComplete 00F0                    __end_of_USBDeviceTasks 129C  
               ?_USBCtrlEPServiceComplete 0001                                     i2l230 22C0  
                                   i2l231 22C4                                     i2l240 22F6  
                                   i2l136 1FEC                                     i2l241 22FA  
                                   i2l233 22E8                                     i2l243 231E  
                                   i2l227 22B8                                     i2l237 22EE  
                                   i2l229 22BC                                     i2l239 22F2  
                                   i2l521 1952                                     i2l433 1298  
                                   i2l610 1CF4                                     i2l506 1782  
                                   i2l434 1228                                     i2l603 210E  
                                   i2l452 1BBE                                     i2l621 1872  
                                   i2l534 13A8                                     i2l623 1794  
                                   i2l632 17F4                                     i2l617 1D2C  
                                   i2l609 1D1E                                     i2l482 1C82  
                                   i2l562 1AD4                                     i2l555 1168  
                                   i2l563 1A4E                                     i2l548 1058  
                                   i2l564 1A54                                     i2l572 2192  
                                   i2l661 0B80                                     i2l559 1A3A  
                                   i2l496 170E                                     i2l657 0ADA  
                                   i2l569 1AF4                                     i2l593 1A2A  
                                   i2l666 24A8                                     i2l689 14A8  
                                   _UADDR 000F6E                             __CFG_USBDIV$2 000000  
                                   _USTAT 000F6C                             __CFG_PWRT$OFF 000000  
                           __CFG_WRT0$OFF 000000        __size_of_USBCtrlEPAllowStatusStage 00C4  
                           __CFG_WRT1$OFF 000000                            __CFG_EBTR0$OFF 000000  
                          __CFG_FCMEN$OFF 000000                            ?_BUTTON_Enable 0001  
                          __CFG_EBTR1$OFF 000000           __end_of_USBCtrlEPAllowDataStage 1DCC  
                                   _sd000 08C3                                     _sd001 0809  
                                   _sd002 083D                             __CFG_WRTB$OFF 000000  
          ?_USBIncrement1msInternalTimers 0001                             __CFG_WRTC$OFF 000000  
                          __CFG_EBTRB$OFF 000000                                i2memset@p1 0001  
               __size_of_BUTTON_IsPressed 002E                                     tablat 000FF5  
                     __size_of_LED_Enable 003A                                     plusw2 000FDB  
                                   status 000FD8                          __end_ofi2_memset 240A  
                     __size_of_LED_Toggle 003A              __size_of_USBStdSetCfgHandler 00F2  
                         __initialization 2430                              __end_of_main 2472  
               __size_of_USBCtrlEPService 00D8                                    ??_main 0091  
                           __activetblptr 000002                           ?_USBDeviceTasks 0001  
                  __size_of_ADC_Read10bit 005C                               ?_USBSuspend 0001  
                               ??_LED_Off 0001                   __end_of_USBDeviceAttach 2352  
                                  _ADCON0 000FC2                                    _ADCON2 000FC0  
                                  _ADRESH 000FC4                                    _ADRESL 000FC3  
                  SYSTEM_Initialize@state 0080                              ??_ADC_Enable 007F  
                                  i2l3102 0A74                                    i2l3014 1148  
                                  i2l3006 10EA                                    i2l3030 1A78  
                                  i2l3112 0ABA                                    i2l3040 1ABC  
                                  i2l3130 0B50                                    i2l3122 0AFA  
                                  i2l3114 0AC6                                    i2l3018 1150  
                                  i2l3220 1360                                    i2l3204 12F8  
                                  i2l3060 08F2                                    i2l3216 1346  
                                  i2l3128 0B44                                    i2l3080 09BE  
                                  i2l3240 17AC                                    i2l3144 16AE  
                                  _LED_On 22B4                                    i2l3322 1CB6  
                                  i2l3082 09C0                                    i2l3074 0972  
                                  i2l3058 08EE                                    i2l3250 17C0  
                                  i2l3162 1720                                    i2l3170 1732  
                                  i2l3340 1D04                                    i2l3324 1CBC  
                                  i2l3308 210A                                    i2l3252 17C6  
                                  i2l3236 17A0                                    i2l3148 16B8  
                                  i2l2702 1B3E                                    i2l3086 09E0  
                                  i2l3262 1812                                    i2l3238 17A6  
                                  i2l3096 0A3A                                    i2l3248 17BA  
                                  i2l3346 1D28                                    i2l2714 1B9E  
                                  i2l2802 1448                                    i2l3098 0A5A  
                                  i2l3266 1830                                    i2l2660 1E34  
                                  i2l2740 1F2A                                    i2l2732 1F08  
                                  i2l2812 1474                                    i2l3540 1A12  
                                  i2l3508 2190                                    i2l3700 1216  
                                  i2l2910 1C08                                    i2l3198 12D0  
                                  i2l2670 2120                                    i2l2806 1454  
                                  i2l2830 1F96                                    i2l2822 1F7E  
                                  i2l3542 1A18                                    i2l3470 2378  
                                  i2l2752 1F54                                    i2l2744 1F32  
                                  i2l2760 1F76                                    i2l2736 1F18  
                                  i2l2824 1F84                                    i2l3528 19AA  
                                  i2l3472 237A                                    i2l3720 1252  
                                  i2l3640 1182                                    i2l3298 20C4  
                                  i2l2674 212E                                    i2l2682 22FE  
                                  i2l2818 1480                                    i2l2826 1F8A  
                                  i2l2834 1F9C                                    i2l2852 1894  
                                  i2l2748 1F42                                    i2l2828 1F90  
                                  i2l2940 1D78                                    i2l3564 0F06  
                                  i2l2694 1B10                                    i2l2758 1F6A  
                                  i2l2782 13E8                                    i2l2774 13CC  
                                  i2l2790 1408                                    i2l3726 1274  
                                  i2l3662 11A6                                    i2l2856 189E  
                                  i2l2688 22C8                                    i2l2792 141A  
                                  i2l2944 1D94                                    i2l3592 0F6C  
                                  i2l3576 0F34                                    i2l3728 1290  
                                  i2l3648 118E                                    i2l2866 18D4  
                                  i2l2874 190E                                    i2l3674 11D4  
                                  i2l2876 1914                                    i2l2884 194E  
                                  i2l2796 142C                                    i2l2892 23F8  
                                  i2l2964 15EA                                    i2l3692 11F2  
                                  i2l3668 11B0                                    i2l3686 11E8  
                                  i2l2888 23E8                                    i2l2994 103E  
                                  i2l2986 1670                                    i2l3972 1FB4  
                                  i2l3974 1FE8           ??_APP_DeviceCustomHIDInitialize 000F  
                i2USBTransferOnePacket@ep 0005                         ??i2_USBDeviceInit 0009  
         __size_ofi2_USBTransferOnePacket 00CA                            __CFG_VREGEN$ON 000000  
                       _shortPacketStatus 004B                            __CFG_XINST$OFF 000000  
                         USBDeviceTasks@i 0024               USBStdFeatureReqHandler@pUEP 001A  
                USBTransferOnePacket@data 0080                USBCtrlTrfInHandler@lastDTS 0002  
                         ??_USBDeviceInit 0087                            __CFG_STVREN$ON 000000  
                       _USBEnableEndpoint 2110           __size_of_USBStdGetStatusHandler 00CA  
                                  _memset 2244                                    clear_0 2436  
                                  clear_1 2442                        ?_USBEnableEndpoint 0009  
                      __end_of_ADC_Enable 24C0             __size_of_USBTransferOnePacket 00F8  
                         ??_BUTTON_Enable 007F                              __mediumconst 0000  
                                  tblptrh 000FF7                                    tblptrl 000FF6  
                                  tblptru 000FF8                       ??_USBEnableEndpoint 000A  
                             _CtrlTrfData 000428                      _controlTransferState 0049  
              ??_APP_DeviceCustomHIDTasks 0086                         _SYSTEM_Initialize 227C  
                              __accesstop 0060                   __end_of__initialization 2448  
                         __CFG_PBADEN$OFF 000000                             _ADC_Read10bit 205A  
                      ?_SYSTEM_Initialize 0001                  __size_of_USBStallHandler 003E  
                     __size_of_USBSuspend 002C                            __pcstackCOMRAM 0001  
               __end_of_USBEnableEndpoint 2158                             __end_of_sd000 08C7  
                           __end_of_sd001 083D                             __end_of_sd002 086B  
                     ??_SYSTEM_Initialize 0080                                 LED_On@led 0001  
        __size_of_USBCtrlEPAllowDataStage 009E                           _active_protocol 004F  
                            ??_LED_Enable 007F             __size_of_USBConfigureEndpoint 009E  
             __end_of_USBCtrlTrfInHandler 1D2E                   ?_APP_LEDUpdateUSBStatus 0001  
                  i2_USBTransferOnePacket 1AF6                              ??_LED_Toggle 007F  
                               ?i2_memset 0001                  ??_USBCtrlTrfSetupHandler 0021  
                 _USBTicksSinceSuspendEnd 0048                          ?_USBDeviceAttach 0001  
               __end_of_SYSTEM_Initialize 22B4                          _BUTTON_IsPressed 2384  
           __size_of_ADC_SetConfiguration 001E                    _USBStdGetStatusHandler 1A2C  
                              __pbssBANK0 0060                                   ?_LED_On 0001  
                          ?_ADC_Read10bit 007F                        __end_of_LED_Enable 21D0  
             __size_of_USBWakeFromSuspend 0032                               _pBDTEntryIn 0068  
        __end_of_USBCtrlEPServiceComplete 1784     __end_of_APP_DeviceCustomHIDInitialize 2244  
  __size_of_APP_DeviceCustomHIDInitialize 003A             _APP_DeviceCustomHIDInitialize 220A  
                      __end_of_LED_Toggle 220A                      USBCtrlTrfRxService@i 0001  
                           LED_Enable@led 007F            __end_of_APP_LEDUpdateUSBStatus 1F7C  
                                 ?_memset 007F                                _device_dsc 08B1  
                        _USBCtrlEPService 1954                                _ep_data_in 0074  
             __end_of_USBCtrlTrfRxService 13AA               APP_DeviceCustomHIDTasks@pot 008F  
                      _USBCheckStdRequest 1784                         _configDescriptor1 086B  
                                 _LED_Off 22EA                                ??i2_memset 0007  
             __end_of_USBCtrlTrfTxService 1954                       _USBStdSetCfgHandler 15A2  
                     ?_USBCheckStdRequest 0001              __size_of_USBStdGetDscHandler 013E  
                                 _UIEbits 000F69                                   _UIRbits 000F68  
                         __size_of_LED_On 0036            APP_LEDUpdateUSBStatus@ledCount 0037  
                                 __Hparam 0000           ??_USBIncrement1msInternalTimers 0001  
                    ?_USBStdSetCfgHandler 0001               __size_of_USBCheckHIDRequest 0100  
                                 __Lparam 0000                         __end_of_hid_rpt01 08B1  
              __size_of_USBEnableEndpoint 0048         ADC_SetConfiguration@configuration 007F  
                    ??_USBCheckStdRequest 001F             __size_of_USBCtrlTrfOutHandler 005A  
                        _ToSendDataBuffer 000540                          ??_USBDeviceTasks 0024  
                       ??_USBStallHandler 0001                              __psmallconst 0800  
                                 __pcinit 2430                           __size_of_memset 0038  
               __end_of_configDescriptor1 0894                                   __ramtop 0800  
                                 __ptext0 2452                                   __ptext1 0D46  
                                 __ptext2 2244                                   __ptext3 2320  
                                 __ptext4 227C                                   __ptext5 2196  
                                 __ptext6 240A                                   __ptext7 2472  
                                 __ptext8 24AA                                   __ptext9 0B82  
                                 _inPipes 0079               _USBDeferOUTDataStagePackets 0043  
                            ??_USBSuspend 0017                           i2_USBDeviceInit 0ECA  
                        i2USBDeviceInit@i 0009                        __end_of_USB_CD_Ptr 0809  
              __size_of_SYSTEM_Initialize 0038           __size_of_USBCtrlTrfSetupHandler 0092  
                          __pintcode_body 1FEE                      end_of_initialization 2448  
                         ??_ADC_Read10bit 0081                        __end_of_USB_SD_Ptr 0807  
                     _pBDTEntryEP0OutNext 003B                                   memset@c 0081  
                                 memset@n 0083                                   memset@p 0085  
                           __Lmediumconst 0000                                   int_func 1FEE  
                         _USB1msTickCount 0033                  ?_USBStdFeatureReqHandler 0001  
                   ??_USBStdSetCfgHandler 0017                        __end_of_USBSuspend 23DE  
                 _USBCtrlEPAllowDataStage 1D2E                                   postdec2 000FDD  
                                 postinc0 000FEE                                   postinc2 000FDE  
                _USBCtrlEPServiceComplete 1694                _USBStatusStageEnabledFlag1 0045  
              _USBStatusStageEnabledFlag2 0046                        USBEnableEndpoint@p 000C  
                               _PORTBbits 000F81                             LED_Toggle@led 007F  
                               _TRISAbits 000F92                                 _TRISBbits 000F93  
                               _TRISDbits 000F95                        _ReceivedDataBuffer 000500  
                      _BothEP0OutUOWNsSet 003F                 USBConfigureEndpoint@EPNum 0006  
              ?_USBCtrlEPAllowStatusStage 0001       USER_USB_CALLBACK_EVENT_HANDLER@size 0013  
                               _USTATcopy 004E              __end_of_USBTransferOnePacket 15A2  
                          __end_of_LED_On 22EA                    _USBCtrlTrfSetupHandler 1E6A  
                __end_of_BUTTON_IsPressed 23B2                   ?i2_USBTransferOnePacket 0001  
                   __end_of_USBDeviceInit 0ECA     __end_of_USBIncrement1msInternalTimers 24AA  
  __size_of_USBIncrement1msInternalTimers 001A             _USBIncrement1msInternalTimers 2490  
                              LED_Off@led 0001                   __end_ofi2_USBDeviceInit 102C  
                               i2memset@c 0003                                 i2memset@n 0005  
                               i2memset@p 0007                            __end_of_memset 227C  
                       _USBBusIsSuspended 0041                       start_initialization 2430  
                 ?_USBStdGetStatusHandler 0001                     __end_of_BUTTON_Enable 2430  
           USBCtrlTrfRxService@byteToRead 0002                         __size_ofi2_memset 002C  
            __end_of_USBConfigureEndpoint 1E6A           __end_of_USBStdFeatureReqHandler 0B82  
                                ??_LED_On 0001         __end_of_USBCtrlEPAllowStatusStage 1C84  
                __end_of_USBCtrlEPService 1A2C                 ??_USBCtrlEPAllowDataStage 0002  
                          USBDeviceInit@i 0087                    _pBDTEntryEP0OutCurrent 0039  
                 USBTransferOnePacket@dir 007F                   USBTransferOnePacket@len 0082  
          __end_ofi2_USBTransferOnePacket 1BC0              __end_of_ADC_SetConfiguration 2490  
                     _USBStdGetDscHandler 102C         __size_of_APP_DeviceCustomHIDTasks 01C4  
               ?_APP_DeviceCustomHIDTasks 0001                          __CFG_LPT1OSC$OFF 000000  
                                ??_memset 0085                    BUTTON_IsPressed@button 007F  
                  _USBActiveConfiguration 004C            __end_of_USBStdGetStatusHandler 1AF6  
                                ?_LED_Off 0001                               __pbssCOMRAM 0033  
                           __pcstackBANK0 007F              __size_of_USBCtrlTrfInHandler 00AA  
                    ?_USBStdGetDscHandler 0001                __end_of_USBWakeFromSuspend 2384  
                         _USBStallHandler 2158                              _pBDTEntryOut 006C  
                __size_of_USBDeviceAttach 0032                                 __pintcode 0008  
                               _hid_rpt01 0894                                 _idle_rate 0050  
                        ?i2_USBDeviceInit 0001                      _USBTransferOnePacket 14AA  
                             __smallconst 0800              __end_of_USBCtrlTrfOutHandler 2110  
                   ??_USBStdGetDscHandler 0001                               _ep_data_out 0076  
            __size_of_USBCtrlTrfRxService 010E             USBConfigureEndpoint@direction 0001  
            __size_of_USBCtrlTrfTxService 00E0                                  _LATDbits 000F8C  
              __end_of_USBCheckHIDRequest 14AA                ??_USBCtrlEPServiceComplete 0002  
                                _IPR2bits 000FA2                                  _PIE2bits 000FA0  
                                i2u180_40 1900                                  i2u180_47 18F6  
                                i2u182_40 1940                                  i2u182_47 1936  
                                _PIR2bits 000FA1                                  i2u196_40 10B0  
                                i2u196_47 10A6                                  i2u197_40 10E4  
                                i2u197_47 10DA                                  i2u199_40 113A  
                                i2u199_47 1130                 USBCtrlEPService@setup_cnt 0023  
                                _RCONbits 000FD0                          __CFG_WDTPS$32768 000000  
                                _UEP0bits 000F70                _USBDeferINDataStagePackets 0042  
             __size_of_USBCheckStdRequest 00F0                                  _UCONbits 000F6D  
                    _USBConfigureEndpoint 1DCC          __size_of_USBStdFeatureReqHandler 02BA  
                              _ADCON0bits 000FC2                                _ADCON1bits 000FC1  
                              _ADCON2bits 000FC0                     ?_USBTransferOnePacket 007F  
                       _SYS_InterruptHigh 0008                              _RemoteWakeup 0040  
                                i2_memset 23DE                          __size_of_LED_Off 0036  
                      ?_SYS_InterruptHigh 0001                   __end_of_USBStallHandler 2196  
                    _ADC_SetConfiguration 2472               ??_USBCtrlEPAllowStatusStage 0001  
             __end_of_USBStdSetCfgHandler 1694                                _ADC_Enable 24AA  
                     ??_SYS_InterruptHigh 0025                     __end_of_ADC_Read10bit 20B6  
                      __end_of_device_dsc 08C3                  ??_APP_LEDUpdateUSBStatus 0002  
                 ?_USBCtrlTrfSetupHandler 0001                   USBStdGetStatusHandler@p 0002  
                                __Hrparam 0000                                  __Lrparam 0000  
                  USBTransferOnePacket@ep 0083                                  _SetupPkt 000420  
                   ?_USBConfigureEndpoint 0001                         ??_USBDeviceAttach 007F  
                       ?_BUTTON_IsPressed 0001                 __end_of_SYS_InterruptHigh 205A  
                      ??_BUTTON_IsPressed 007F                   __size_of_USBDeviceTasks 0132  
                                __ptext10 14AA                                  __ptext11 21D0  
                                __ptext20 2490                                  __ptext12 2384  
                                __ptext21 1954                                  __ptext13 205A  
                                __ptext30 08C8                                  __ptext22 1E6A  
                                __ptext31 1F7C                                  __ptext23 1694  
                                __ptext15 116A                                  __ptext40 20B6  
                                __ptext32 13AA                                  __ptext24 1D2E  
                                __ptext16 0ECA                                  __ptext41 129C  
                                __ptext33 1EFC                                  __ptext25 1784  
                                __ptext17 2352                                  __ptext42 1BC0  
                                __ptext34 22B4                                  __ptext26 15A2  
                                __ptext18 23B2                                  __ptext43 1C84  
                                __ptext35 22EA                                  __ptext27 23DE  
                                __ptext19 2158                                  __ptext44 1874  
                                __ptext36 220A                                  __ptext28 1A2C  
                                __ptext37 1AF6                                  __ptext29 102C  
                                __ptext38 2110                                  __ptext39 1DCC  
                   ?_ADC_SetConfiguration 0001          __end_of_APP_DeviceCustomHIDTasks 0D46  
          __end_of_USBCtrlTrfSetupHandler 1EFC                             __size_of_main 0020  
                       ?_USBCtrlEPService 0001                        ??_USBCtrlEPService 0021  
                     _USBCtrlTrfInHandler 1C84                       BUTTON_Enable@button 007F  
                                _outPipes 0060                      _USBCtrlTrfOutHandler 20B6  
               _USBCtrlEPAllowStatusStage 1BC0                                _LED_Enable 2196  
                  ??_USBTransferOnePacket 0083              _APP_DeviceCustomHIDTasks$225 008B  
            _APP_DeviceCustomHIDTasks$227 008D              _APP_DeviceCustomHIDTasks$191 0089  
          ?_APP_DeviceCustomHIDInitialize 0001                     __CFG_CPUDIV$OSC1_PLL2 000000  
                              _LED_Toggle 21D0                 _USBDeferStatusStagePacket 0044  
                              _INTCONbits 000FF2                      ?_USBCtrlTrfInHandler 0001  
           USBCtrlTrfTxService@byteToSend 0001                                  memset@p1 007F  
                        ?_USBStallHandler 0001                  USBStdFeatureReqHandler@p 001D  
                                intlevel2 0000                               ?_ADC_Enable 0001  
                  __size_of_USBDeviceInit 0184   __end_of_USER_USB_CALLBACK_EVENT_HANDLER 1FEE  
__size_of_USER_USB_CALLBACK_EVENT_HANDLER 0072         ??_USER_USB_CALLBACK_EVENT_HANDLER 0015  
        ?_USER_USB_CALLBACK_EVENT_HANDLER 000F           _USER_USB_CALLBACK_EVENT_HANDLER 1F7C  
            i2USBTransferOnePacket@handle 0006                      ADC_Read10bit@channel 0084  
         __size_of_APP_LEDUpdateUSBStatus 0080                i2USBTransferOnePacket@data 0002  
                  ??_USBConfigureEndpoint 0002                     ?_USBCtrlTrfOutHandler 0001  
                  __size_of_BUTTON_Enable 0026                       _USBCtrlTrfRxService 129C  
                      _USBWakeFromSuspend 2352                   _USBStdFeatureReqHandler 08C8  
                     _USBCtrlTrfTxService 1874                __size_of_SYS_InterruptHigh 2052  
                       ADC_Enable@channel 007F                       ?_USBWakeFromSuspend 0001  
                   ??_USBCtrlTrfInHandler 0002                     _USBAlternateInterface 004D  
                  ??_ADC_SetConfiguration 007F                 i2USBTransferOnePacket@dir 0001  
               i2USBTransferOnePacket@len 0004                       USBEnableEndpoint@ep 000E  
                         _endpoint_number 004A                       ADC_Read10bit@result 0082  
                    ?_USBCtrlTrfRxService 0001                        __CFG_FOSC$HSPLL_HS 000000  
                ?_USBCtrlEPAllowDataStage 0001                      ?_USBCtrlTrfTxService 0001  
            _USBStatusStageTimeoutCounter 0047                      ??_USBWakeFromSuspend 0017  
              USBTransferOnePacket@handle 0084                                _USB_CD_Ptr 0807  
                             _USBInHandle 0070                  _APP_DeviceCustomHIDTasks 0B82  
